
rtarget:     file format elf64-x86-64


Disassembly of section .init:

0000000000400c60 <_init>:
  400c60:	48 83 ec 08          	sub    $0x8,%rsp
  400c64:	48 8b 05 8d 43 20 00 	mov    0x20438d(%rip),%rax        # 604ff8 <_DYNAMIC+0x1d0>
  400c6b:	48 85 c0             	test   %rax,%rax
  400c6e:	74 05                	je     400c75 <_init+0x15>
  400c70:	e8 2b 01 00 00       	callq  400da0 <__gmon_start__@plt>
  400c75:	48 83 c4 08          	add    $0x8,%rsp
  400c79:	c3                   	retq   

Disassembly of section .plt:

0000000000400c80 <strcasecmp@plt-0x10>:
  400c80:	ff 35 82 43 20 00    	pushq  0x204382(%rip)        # 605008 <_GLOBAL_OFFSET_TABLE_+0x8>
  400c86:	ff 25 84 43 20 00    	jmpq   *0x204384(%rip)        # 605010 <_GLOBAL_OFFSET_TABLE_+0x10>
  400c8c:	0f 1f 40 00          	nopl   0x0(%rax)

0000000000400c90 <strcasecmp@plt>:
  400c90:	ff 25 82 43 20 00    	jmpq   *0x204382(%rip)        # 605018 <_GLOBAL_OFFSET_TABLE_+0x18>
  400c96:	68 00 00 00 00       	pushq  $0x0
  400c9b:	e9 e0 ff ff ff       	jmpq   400c80 <_init+0x20>

0000000000400ca0 <__errno_location@plt>:
  400ca0:	ff 25 7a 43 20 00    	jmpq   *0x20437a(%rip)        # 605020 <_GLOBAL_OFFSET_TABLE_+0x20>
  400ca6:	68 01 00 00 00       	pushq  $0x1
  400cab:	e9 d0 ff ff ff       	jmpq   400c80 <_init+0x20>

0000000000400cb0 <srandom@plt>:
  400cb0:	ff 25 72 43 20 00    	jmpq   *0x204372(%rip)        # 605028 <_GLOBAL_OFFSET_TABLE_+0x28>
  400cb6:	68 02 00 00 00       	pushq  $0x2
  400cbb:	e9 c0 ff ff ff       	jmpq   400c80 <_init+0x20>

0000000000400cc0 <strncmp@plt>:
  400cc0:	ff 25 6a 43 20 00    	jmpq   *0x20436a(%rip)        # 605030 <_GLOBAL_OFFSET_TABLE_+0x30>
  400cc6:	68 03 00 00 00       	pushq  $0x3
  400ccb:	e9 b0 ff ff ff       	jmpq   400c80 <_init+0x20>

0000000000400cd0 <strcpy@plt>:
  400cd0:	ff 25 62 43 20 00    	jmpq   *0x204362(%rip)        # 605038 <_GLOBAL_OFFSET_TABLE_+0x38>
  400cd6:	68 04 00 00 00       	pushq  $0x4
  400cdb:	e9 a0 ff ff ff       	jmpq   400c80 <_init+0x20>

0000000000400ce0 <puts@plt>:
  400ce0:	ff 25 5a 43 20 00    	jmpq   *0x20435a(%rip)        # 605040 <_GLOBAL_OFFSET_TABLE_+0x40>
  400ce6:	68 05 00 00 00       	pushq  $0x5
  400ceb:	e9 90 ff ff ff       	jmpq   400c80 <_init+0x20>

0000000000400cf0 <write@plt>:
  400cf0:	ff 25 52 43 20 00    	jmpq   *0x204352(%rip)        # 605048 <_GLOBAL_OFFSET_TABLE_+0x48>
  400cf6:	68 06 00 00 00       	pushq  $0x6
  400cfb:	e9 80 ff ff ff       	jmpq   400c80 <_init+0x20>

0000000000400d00 <__stack_chk_fail@plt>:
  400d00:	ff 25 4a 43 20 00    	jmpq   *0x20434a(%rip)        # 605050 <_GLOBAL_OFFSET_TABLE_+0x50>
  400d06:	68 07 00 00 00       	pushq  $0x7
  400d0b:	e9 70 ff ff ff       	jmpq   400c80 <_init+0x20>

0000000000400d10 <mmap@plt>:
  400d10:	ff 25 42 43 20 00    	jmpq   *0x204342(%rip)        # 605058 <_GLOBAL_OFFSET_TABLE_+0x58>
  400d16:	68 08 00 00 00       	pushq  $0x8
  400d1b:	e9 60 ff ff ff       	jmpq   400c80 <_init+0x20>

0000000000400d20 <memset@plt>:
  400d20:	ff 25 3a 43 20 00    	jmpq   *0x20433a(%rip)        # 605060 <_GLOBAL_OFFSET_TABLE_+0x60>
  400d26:	68 09 00 00 00       	pushq  $0x9
  400d2b:	e9 50 ff ff ff       	jmpq   400c80 <_init+0x20>

0000000000400d30 <alarm@plt>:
  400d30:	ff 25 32 43 20 00    	jmpq   *0x204332(%rip)        # 605068 <_GLOBAL_OFFSET_TABLE_+0x68>
  400d36:	68 0a 00 00 00       	pushq  $0xa
  400d3b:	e9 40 ff ff ff       	jmpq   400c80 <_init+0x20>

0000000000400d40 <close@plt>:
  400d40:	ff 25 2a 43 20 00    	jmpq   *0x20432a(%rip)        # 605070 <_GLOBAL_OFFSET_TABLE_+0x70>
  400d46:	68 0b 00 00 00       	pushq  $0xb
  400d4b:	e9 30 ff ff ff       	jmpq   400c80 <_init+0x20>

0000000000400d50 <read@plt>:
  400d50:	ff 25 22 43 20 00    	jmpq   *0x204322(%rip)        # 605078 <_GLOBAL_OFFSET_TABLE_+0x78>
  400d56:	68 0c 00 00 00       	pushq  $0xc
  400d5b:	e9 20 ff ff ff       	jmpq   400c80 <_init+0x20>

0000000000400d60 <__libc_start_main@plt>:
  400d60:	ff 25 1a 43 20 00    	jmpq   *0x20431a(%rip)        # 605080 <_GLOBAL_OFFSET_TABLE_+0x80>
  400d66:	68 0d 00 00 00       	pushq  $0xd
  400d6b:	e9 10 ff ff ff       	jmpq   400c80 <_init+0x20>

0000000000400d70 <signal@plt>:
  400d70:	ff 25 12 43 20 00    	jmpq   *0x204312(%rip)        # 605088 <_GLOBAL_OFFSET_TABLE_+0x88>
  400d76:	68 0e 00 00 00       	pushq  $0xe
  400d7b:	e9 00 ff ff ff       	jmpq   400c80 <_init+0x20>

0000000000400d80 <gethostbyname@plt>:
  400d80:	ff 25 0a 43 20 00    	jmpq   *0x20430a(%rip)        # 605090 <_GLOBAL_OFFSET_TABLE_+0x90>
  400d86:	68 0f 00 00 00       	pushq  $0xf
  400d8b:	e9 f0 fe ff ff       	jmpq   400c80 <_init+0x20>

0000000000400d90 <__memmove_chk@plt>:
  400d90:	ff 25 02 43 20 00    	jmpq   *0x204302(%rip)        # 605098 <_GLOBAL_OFFSET_TABLE_+0x98>
  400d96:	68 10 00 00 00       	pushq  $0x10
  400d9b:	e9 e0 fe ff ff       	jmpq   400c80 <_init+0x20>

0000000000400da0 <__gmon_start__@plt>:
  400da0:	ff 25 fa 42 20 00    	jmpq   *0x2042fa(%rip)        # 6050a0 <_GLOBAL_OFFSET_TABLE_+0xa0>
  400da6:	68 11 00 00 00       	pushq  $0x11
  400dab:	e9 d0 fe ff ff       	jmpq   400c80 <_init+0x20>

0000000000400db0 <strtol@plt>:
  400db0:	ff 25 f2 42 20 00    	jmpq   *0x2042f2(%rip)        # 6050a8 <_GLOBAL_OFFSET_TABLE_+0xa8>
  400db6:	68 12 00 00 00       	pushq  $0x12
  400dbb:	e9 c0 fe ff ff       	jmpq   400c80 <_init+0x20>

0000000000400dc0 <memcpy@plt>:
  400dc0:	ff 25 ea 42 20 00    	jmpq   *0x2042ea(%rip)        # 6050b0 <_GLOBAL_OFFSET_TABLE_+0xb0>
  400dc6:	68 13 00 00 00       	pushq  $0x13
  400dcb:	e9 b0 fe ff ff       	jmpq   400c80 <_init+0x20>

0000000000400dd0 <time@plt>:
  400dd0:	ff 25 e2 42 20 00    	jmpq   *0x2042e2(%rip)        # 6050b8 <_GLOBAL_OFFSET_TABLE_+0xb8>
  400dd6:	68 14 00 00 00       	pushq  $0x14
  400ddb:	e9 a0 fe ff ff       	jmpq   400c80 <_init+0x20>

0000000000400de0 <random@plt>:
  400de0:	ff 25 da 42 20 00    	jmpq   *0x2042da(%rip)        # 6050c0 <_GLOBAL_OFFSET_TABLE_+0xc0>
  400de6:	68 15 00 00 00       	pushq  $0x15
  400deb:	e9 90 fe ff ff       	jmpq   400c80 <_init+0x20>

0000000000400df0 <_IO_getc@plt>:
  400df0:	ff 25 d2 42 20 00    	jmpq   *0x2042d2(%rip)        # 6050c8 <_GLOBAL_OFFSET_TABLE_+0xc8>
  400df6:	68 16 00 00 00       	pushq  $0x16
  400dfb:	e9 80 fe ff ff       	jmpq   400c80 <_init+0x20>

0000000000400e00 <__isoc99_sscanf@plt>:
  400e00:	ff 25 ca 42 20 00    	jmpq   *0x2042ca(%rip)        # 6050d0 <_GLOBAL_OFFSET_TABLE_+0xd0>
  400e06:	68 17 00 00 00       	pushq  $0x17
  400e0b:	e9 70 fe ff ff       	jmpq   400c80 <_init+0x20>

0000000000400e10 <munmap@plt>:
  400e10:	ff 25 c2 42 20 00    	jmpq   *0x2042c2(%rip)        # 6050d8 <_GLOBAL_OFFSET_TABLE_+0xd8>
  400e16:	68 18 00 00 00       	pushq  $0x18
  400e1b:	e9 60 fe ff ff       	jmpq   400c80 <_init+0x20>

0000000000400e20 <__printf_chk@plt>:
  400e20:	ff 25 ba 42 20 00    	jmpq   *0x2042ba(%rip)        # 6050e0 <_GLOBAL_OFFSET_TABLE_+0xe0>
  400e26:	68 19 00 00 00       	pushq  $0x19
  400e2b:	e9 50 fe ff ff       	jmpq   400c80 <_init+0x20>

0000000000400e30 <fopen@plt>:
  400e30:	ff 25 b2 42 20 00    	jmpq   *0x2042b2(%rip)        # 6050e8 <_GLOBAL_OFFSET_TABLE_+0xe8>
  400e36:	68 1a 00 00 00       	pushq  $0x1a
  400e3b:	e9 40 fe ff ff       	jmpq   400c80 <_init+0x20>

0000000000400e40 <getopt@plt>:
  400e40:	ff 25 aa 42 20 00    	jmpq   *0x2042aa(%rip)        # 6050f0 <_GLOBAL_OFFSET_TABLE_+0xf0>
  400e46:	68 1b 00 00 00       	pushq  $0x1b
  400e4b:	e9 30 fe ff ff       	jmpq   400c80 <_init+0x20>

0000000000400e50 <strtoul@plt>:
  400e50:	ff 25 a2 42 20 00    	jmpq   *0x2042a2(%rip)        # 6050f8 <_GLOBAL_OFFSET_TABLE_+0xf8>
  400e56:	68 1c 00 00 00       	pushq  $0x1c
  400e5b:	e9 20 fe ff ff       	jmpq   400c80 <_init+0x20>

0000000000400e60 <gethostname@plt>:
  400e60:	ff 25 9a 42 20 00    	jmpq   *0x20429a(%rip)        # 605100 <_GLOBAL_OFFSET_TABLE_+0x100>
  400e66:	68 1d 00 00 00       	pushq  $0x1d
  400e6b:	e9 10 fe ff ff       	jmpq   400c80 <_init+0x20>

0000000000400e70 <exit@plt>:
  400e70:	ff 25 92 42 20 00    	jmpq   *0x204292(%rip)        # 605108 <_GLOBAL_OFFSET_TABLE_+0x108>
  400e76:	68 1e 00 00 00       	pushq  $0x1e
  400e7b:	e9 00 fe ff ff       	jmpq   400c80 <_init+0x20>

0000000000400e80 <connect@plt>:
  400e80:	ff 25 8a 42 20 00    	jmpq   *0x20428a(%rip)        # 605110 <_GLOBAL_OFFSET_TABLE_+0x110>
  400e86:	68 1f 00 00 00       	pushq  $0x1f
  400e8b:	e9 f0 fd ff ff       	jmpq   400c80 <_init+0x20>

0000000000400e90 <__fprintf_chk@plt>:
  400e90:	ff 25 82 42 20 00    	jmpq   *0x204282(%rip)        # 605118 <_GLOBAL_OFFSET_TABLE_+0x118>
  400e96:	68 20 00 00 00       	pushq  $0x20
  400e9b:	e9 e0 fd ff ff       	jmpq   400c80 <_init+0x20>

0000000000400ea0 <__sprintf_chk@plt>:
  400ea0:	ff 25 7a 42 20 00    	jmpq   *0x20427a(%rip)        # 605120 <_GLOBAL_OFFSET_TABLE_+0x120>
  400ea6:	68 21 00 00 00       	pushq  $0x21
  400eab:	e9 d0 fd ff ff       	jmpq   400c80 <_init+0x20>

0000000000400eb0 <socket@plt>:
  400eb0:	ff 25 72 42 20 00    	jmpq   *0x204272(%rip)        # 605128 <_GLOBAL_OFFSET_TABLE_+0x128>
  400eb6:	68 22 00 00 00       	pushq  $0x22
  400ebb:	e9 c0 fd ff ff       	jmpq   400c80 <_init+0x20>

Disassembly of section .text:

0000000000400ec0 <_start>:
  400ec0:	31 ed                	xor    %ebp,%ebp
  400ec2:	49 89 d1             	mov    %rdx,%r9
  400ec5:	5e                   	pop    %rsi
  400ec6:	48 89 e2             	mov    %rsp,%rdx
  400ec9:	48 83 e4 f0          	and    $0xfffffffffffffff0,%rsp
  400ecd:	50                   	push   %rax
  400ece:	54                   	push   %rsp
  400ecf:	49 c7 c0 40 2f 40 00 	mov    $0x402f40,%r8
  400ed6:	48 c7 c1 d0 2e 40 00 	mov    $0x402ed0,%rcx
  400edd:	48 c7 c7 c5 11 40 00 	mov    $0x4011c5,%rdi
  400ee4:	e8 77 fe ff ff       	callq  400d60 <__libc_start_main@plt>
  400ee9:	f4                   	hlt    
  400eea:	66 0f 1f 44 00 00    	nopw   0x0(%rax,%rax,1)

0000000000400ef0 <deregister_tm_clones>:
  400ef0:	b8 b7 54 60 00       	mov    $0x6054b7,%eax
  400ef5:	55                   	push   %rbp
  400ef6:	48 2d b0 54 60 00    	sub    $0x6054b0,%rax
  400efc:	48 83 f8 0e          	cmp    $0xe,%rax
  400f00:	48 89 e5             	mov    %rsp,%rbp
  400f03:	76 1b                	jbe    400f20 <deregister_tm_clones+0x30>
  400f05:	b8 00 00 00 00       	mov    $0x0,%eax
  400f0a:	48 85 c0             	test   %rax,%rax
  400f0d:	74 11                	je     400f20 <deregister_tm_clones+0x30>
  400f0f:	5d                   	pop    %rbp
  400f10:	bf b0 54 60 00       	mov    $0x6054b0,%edi
  400f15:	ff e0                	jmpq   *%rax
  400f17:	66 0f 1f 84 00 00 00 	nopw   0x0(%rax,%rax,1)
  400f1e:	00 00 
  400f20:	5d                   	pop    %rbp
  400f21:	c3                   	retq   
  400f22:	66 66 66 66 66 2e 0f 	data16 data16 data16 data16 nopw %cs:0x0(%rax,%rax,1)
  400f29:	1f 84 00 00 00 00 00 

0000000000400f30 <register_tm_clones>:
  400f30:	be b0 54 60 00       	mov    $0x6054b0,%esi
  400f35:	55                   	push   %rbp
  400f36:	48 81 ee b0 54 60 00 	sub    $0x6054b0,%rsi
  400f3d:	48 c1 fe 03          	sar    $0x3,%rsi
  400f41:	48 89 e5             	mov    %rsp,%rbp
  400f44:	48 89 f0             	mov    %rsi,%rax
  400f47:	48 c1 e8 3f          	shr    $0x3f,%rax
  400f4b:	48 01 c6             	add    %rax,%rsi
  400f4e:	48 d1 fe             	sar    %rsi
  400f51:	74 15                	je     400f68 <register_tm_clones+0x38>
  400f53:	b8 00 00 00 00       	mov    $0x0,%eax
  400f58:	48 85 c0             	test   %rax,%rax
  400f5b:	74 0b                	je     400f68 <register_tm_clones+0x38>
  400f5d:	5d                   	pop    %rbp
  400f5e:	bf b0 54 60 00       	mov    $0x6054b0,%edi
  400f63:	ff e0                	jmpq   *%rax
  400f65:	0f 1f 00             	nopl   (%rax)
  400f68:	5d                   	pop    %rbp
  400f69:	c3                   	retq   
  400f6a:	66 0f 1f 44 00 00    	nopw   0x0(%rax,%rax,1)

0000000000400f70 <__do_global_dtors_aux>:
  400f70:	80 3d 79 45 20 00 00 	cmpb   $0x0,0x204579(%rip)        # 6054f0 <completed.7545>
  400f77:	75 11                	jne    400f8a <__do_global_dtors_aux+0x1a>
  400f79:	55                   	push   %rbp
  400f7a:	48 89 e5             	mov    %rsp,%rbp
  400f7d:	e8 6e ff ff ff       	callq  400ef0 <deregister_tm_clones>
  400f82:	5d                   	pop    %rbp
  400f83:	c6 05 66 45 20 00 01 	movb   $0x1,0x204566(%rip)        # 6054f0 <completed.7545>
  400f8a:	f3 c3                	repz retq 
  400f8c:	0f 1f 40 00          	nopl   0x0(%rax)

0000000000400f90 <frame_dummy>:
  400f90:	bf 20 4e 60 00       	mov    $0x604e20,%edi
  400f95:	48 83 3f 00          	cmpq   $0x0,(%rdi)
  400f99:	75 05                	jne    400fa0 <frame_dummy+0x10>
  400f9b:	eb 93                	jmp    400f30 <register_tm_clones>
  400f9d:	0f 1f 00             	nopl   (%rax)
  400fa0:	b8 00 00 00 00       	mov    $0x0,%eax
  400fa5:	48 85 c0             	test   %rax,%rax
  400fa8:	74 f1                	je     400f9b <frame_dummy+0xb>
  400faa:	55                   	push   %rbp
  400fab:	48 89 e5             	mov    %rsp,%rbp
  400fae:	ff d0                	callq  *%rax
  400fb0:	5d                   	pop    %rbp
  400fb1:	e9 7a ff ff ff       	jmpq   400f30 <register_tm_clones>

0000000000400fb6 <usage>:
  400fb6:	48 83 ec 08          	sub    $0x8,%rsp
  400fba:	48 89 fa             	mov    %rdi,%rdx
  400fbd:	83 3d 64 45 20 00 00 	cmpl   $0x0,0x204564(%rip)        # 605528 <is_checker>
  400fc4:	74 3e                	je     401004 <usage+0x4e>
  400fc6:	be 58 2f 40 00       	mov    $0x402f58,%esi
  400fcb:	bf 01 00 00 00       	mov    $0x1,%edi
  400fd0:	b8 00 00 00 00       	mov    $0x0,%eax
  400fd5:	e8 46 fe ff ff       	callq  400e20 <__printf_chk@plt>
  400fda:	bf 90 2f 40 00       	mov    $0x402f90,%edi
  400fdf:	e8 fc fc ff ff       	callq  400ce0 <puts@plt>
  400fe4:	bf 08 31 40 00       	mov    $0x403108,%edi
  400fe9:	e8 f2 fc ff ff       	callq  400ce0 <puts@plt>
  400fee:	bf b8 2f 40 00       	mov    $0x402fb8,%edi
  400ff3:	e8 e8 fc ff ff       	callq  400ce0 <puts@plt>
  400ff8:	bf 22 31 40 00       	mov    $0x403122,%edi
  400ffd:	e8 de fc ff ff       	callq  400ce0 <puts@plt>
  401002:	eb 32                	jmp    401036 <usage+0x80>
  401004:	be 3e 31 40 00       	mov    $0x40313e,%esi
  401009:	bf 01 00 00 00       	mov    $0x1,%edi
  40100e:	b8 00 00 00 00       	mov    $0x0,%eax
  401013:	e8 08 fe ff ff       	callq  400e20 <__printf_chk@plt>
  401018:	bf e0 2f 40 00       	mov    $0x402fe0,%edi
  40101d:	e8 be fc ff ff       	callq  400ce0 <puts@plt>
  401022:	bf 08 30 40 00       	mov    $0x403008,%edi
  401027:	e8 b4 fc ff ff       	callq  400ce0 <puts@plt>
  40102c:	bf 5c 31 40 00       	mov    $0x40315c,%edi
  401031:	e8 aa fc ff ff       	callq  400ce0 <puts@plt>
  401036:	bf 00 00 00 00       	mov    $0x0,%edi
  40103b:	e8 30 fe ff ff       	callq  400e70 <exit@plt>

0000000000401040 <initialize_target>:
  401040:	55                   	push   %rbp
  401041:	53                   	push   %rbx
  401042:	48 81 ec 18 21 00 00 	sub    $0x2118,%rsp
  401049:	89 f5                	mov    %esi,%ebp
  40104b:	64 48 8b 04 25 28 00 	mov    %fs:0x28,%rax
  401052:	00 00 
  401054:	48 89 84 24 08 21 00 	mov    %rax,0x2108(%rsp)
  40105b:	00 
  40105c:	31 c0                	xor    %eax,%eax
  40105e:	89 3d b4 44 20 00    	mov    %edi,0x2044b4(%rip)        # 605518 <check_level>
  401064:	8b 3d fe 40 20 00    	mov    0x2040fe(%rip),%edi        # 605168 <target_id>
  40106a:	e8 37 1e 00 00       	callq  402ea6 <gencookie>
  40106f:	89 05 af 44 20 00    	mov    %eax,0x2044af(%rip)        # 605524 <cookie>
  401075:	89 c7                	mov    %eax,%edi
  401077:	e8 2a 1e 00 00       	callq  402ea6 <gencookie>
  40107c:	89 05 9e 44 20 00    	mov    %eax,0x20449e(%rip)        # 605520 <authkey>
  401082:	8b 05 e0 40 20 00    	mov    0x2040e0(%rip),%eax        # 605168 <target_id>
  401088:	8d 78 01             	lea    0x1(%rax),%edi
  40108b:	e8 20 fc ff ff       	callq  400cb0 <srandom@plt>
  401090:	e8 4b fd ff ff       	callq  400de0 <random@plt>
  401095:	89 c7                	mov    %eax,%edi
  401097:	e8 03 03 00 00       	callq  40139f <scramble>
  40109c:	89 c3                	mov    %eax,%ebx
  40109e:	85 ed                	test   %ebp,%ebp
  4010a0:	74 18                	je     4010ba <initialize_target+0x7a>
  4010a2:	bf 00 00 00 00       	mov    $0x0,%edi
  4010a7:	e8 24 fd ff ff       	callq  400dd0 <time@plt>
  4010ac:	89 c7                	mov    %eax,%edi
  4010ae:	e8 fd fb ff ff       	callq  400cb0 <srandom@plt>
  4010b3:	e8 28 fd ff ff       	callq  400de0 <random@plt>
  4010b8:	eb 05                	jmp    4010bf <initialize_target+0x7f>
  4010ba:	b8 00 00 00 00       	mov    $0x0,%eax
  4010bf:	01 c3                	add    %eax,%ebx
  4010c1:	0f b7 db             	movzwl %bx,%ebx
  4010c4:	8d 04 dd 00 01 00 00 	lea    0x100(,%rbx,8),%eax
  4010cb:	89 c0                	mov    %eax,%eax
  4010cd:	48 89 05 cc 43 20 00 	mov    %rax,0x2043cc(%rip)        # 6054a0 <buf_offset>
  4010d4:	c6 05 6d 50 20 00 72 	movb   $0x72,0x20506d(%rip)        # 606148 <target_prefix>
  4010db:	83 3d c6 43 20 00 00 	cmpl   $0x0,0x2043c6(%rip)        # 6054a8 <notify>
  4010e2:	0f 84 bb 00 00 00    	je     4011a3 <initialize_target+0x163>
  4010e8:	83 3d 39 44 20 00 00 	cmpl   $0x0,0x204439(%rip)        # 605528 <is_checker>
  4010ef:	0f 85 ae 00 00 00    	jne    4011a3 <initialize_target+0x163>
  4010f5:	be 00 01 00 00       	mov    $0x100,%esi
  4010fa:	48 89 e7             	mov    %rsp,%rdi
  4010fd:	e8 5e fd ff ff       	callq  400e60 <gethostname@plt>
  401102:	85 c0                	test   %eax,%eax
  401104:	74 25                	je     40112b <initialize_target+0xeb>
  401106:	bf 38 30 40 00       	mov    $0x403038,%edi
  40110b:	e8 d0 fb ff ff       	callq  400ce0 <puts@plt>
  401110:	bf 08 00 00 00       	mov    $0x8,%edi
  401115:	e8 56 fd ff ff       	callq  400e70 <exit@plt>
  40111a:	48 89 e6             	mov    %rsp,%rsi
  40111d:	e8 6e fb ff ff       	callq  400c90 <strcasecmp@plt>
  401122:	85 c0                	test   %eax,%eax
  401124:	74 21                	je     401147 <initialize_target+0x107>
  401126:	83 c3 01             	add    $0x1,%ebx
  401129:	eb 05                	jmp    401130 <initialize_target+0xf0>
  40112b:	bb 00 00 00 00       	mov    $0x0,%ebx
  401130:	48 63 c3             	movslq %ebx,%rax
  401133:	48 8b 3c c5 80 51 60 	mov    0x605180(,%rax,8),%rdi
  40113a:	00 
  40113b:	48 85 ff             	test   %rdi,%rdi
  40113e:	75 da                	jne    40111a <initialize_target+0xda>
  401140:	b8 00 00 00 00       	mov    $0x0,%eax
  401145:	eb 05                	jmp    40114c <initialize_target+0x10c>
  401147:	b8 01 00 00 00       	mov    $0x1,%eax
  40114c:	85 c0                	test   %eax,%eax
  40114e:	75 1c                	jne    40116c <initialize_target+0x12c>
  401150:	48 89 e2             	mov    %rsp,%rdx
  401153:	be 70 30 40 00       	mov    $0x403070,%esi
  401158:	bf 01 00 00 00       	mov    $0x1,%edi
  40115d:	e8 be fc ff ff       	callq  400e20 <__printf_chk@plt>
  401162:	bf 08 00 00 00       	mov    $0x8,%edi
  401167:	e8 04 fd ff ff       	callq  400e70 <exit@plt>
  40116c:	48 8d bc 24 00 01 00 	lea    0x100(%rsp),%rdi
  401173:	00 
  401174:	e8 97 1a 00 00       	callq  402c10 <init_driver>
  401179:	85 c0                	test   %eax,%eax
  40117b:	79 26                	jns    4011a3 <initialize_target+0x163>
  40117d:	48 8d 94 24 00 01 00 	lea    0x100(%rsp),%rdx
  401184:	00 
  401185:	be b0 30 40 00       	mov    $0x4030b0,%esi
  40118a:	bf 01 00 00 00       	mov    $0x1,%edi
  40118f:	b8 00 00 00 00       	mov    $0x0,%eax
  401194:	e8 87 fc ff ff       	callq  400e20 <__printf_chk@plt>
  401199:	bf 08 00 00 00       	mov    $0x8,%edi
  40119e:	e8 cd fc ff ff       	callq  400e70 <exit@plt>
  4011a3:	48 8b 84 24 08 21 00 	mov    0x2108(%rsp),%rax
  4011aa:	00 
  4011ab:	64 48 33 04 25 28 00 	xor    %fs:0x28,%rax
  4011b2:	00 00 
  4011b4:	74 05                	je     4011bb <initialize_target+0x17b>
  4011b6:	e8 45 fb ff ff       	callq  400d00 <__stack_chk_fail@plt>
  4011bb:	48 81 c4 18 21 00 00 	add    $0x2118,%rsp
  4011c2:	5b                   	pop    %rbx
  4011c3:	5d                   	pop    %rbp
  4011c4:	c3                   	retq   

00000000004011c5 <main>:
  4011c5:	41 56                	push   %r14
  4011c7:	41 55                	push   %r13
  4011c9:	41 54                	push   %r12
  4011cb:	55                   	push   %rbp
  4011cc:	53                   	push   %rbx
  4011cd:	41 89 fc             	mov    %edi,%r12d
  4011d0:	48 89 f3             	mov    %rsi,%rbx
  4011d3:	be 7f 1f 40 00       	mov    $0x401f7f,%esi
  4011d8:	bf 0b 00 00 00       	mov    $0xb,%edi
  4011dd:	e8 8e fb ff ff       	callq  400d70 <signal@plt>
  4011e2:	be 31 1f 40 00       	mov    $0x401f31,%esi
  4011e7:	bf 07 00 00 00       	mov    $0x7,%edi
  4011ec:	e8 7f fb ff ff       	callq  400d70 <signal@plt>
  4011f1:	be cd 1f 40 00       	mov    $0x401fcd,%esi
  4011f6:	bf 04 00 00 00       	mov    $0x4,%edi
  4011fb:	e8 70 fb ff ff       	callq  400d70 <signal@plt>
  401200:	83 3d 21 43 20 00 00 	cmpl   $0x0,0x204321(%rip)        # 605528 <is_checker>
  401207:	74 20                	je     401229 <main+0x64>
  401209:	be 1b 20 40 00       	mov    $0x40201b,%esi
  40120e:	bf 0e 00 00 00       	mov    $0xe,%edi
  401213:	e8 58 fb ff ff       	callq  400d70 <signal@plt>
  401218:	bf 05 00 00 00       	mov    $0x5,%edi
  40121d:	e8 0e fb ff ff       	callq  400d30 <alarm@plt>
  401222:	bd 7a 31 40 00       	mov    $0x40317a,%ebp
  401227:	eb 05                	jmp    40122e <main+0x69>
  401229:	bd 75 31 40 00       	mov    $0x403175,%ebp
  40122e:	48 8b 05 8b 42 20 00 	mov    0x20428b(%rip),%rax        # 6054c0 <stdin@@GLIBC_2.2.5>
  401235:	48 89 05 d4 42 20 00 	mov    %rax,0x2042d4(%rip)        # 605510 <infile>
  40123c:	41 bd 00 00 00 00    	mov    $0x0,%r13d
  401242:	41 be 00 00 00 00    	mov    $0x0,%r14d
  401248:	e9 c6 00 00 00       	jmpq   401313 <main+0x14e>
  40124d:	83 e8 61             	sub    $0x61,%eax
  401250:	3c 10                	cmp    $0x10,%al
  401252:	0f 87 9c 00 00 00    	ja     4012f4 <main+0x12f>
  401258:	0f b6 c0             	movzbl %al,%eax
  40125b:	ff 24 c5 c0 31 40 00 	jmpq   *0x4031c0(,%rax,8)
  401262:	48 8b 3b             	mov    (%rbx),%rdi
  401265:	e8 4c fd ff ff       	callq  400fb6 <usage>
  40126a:	be 2d 34 40 00       	mov    $0x40342d,%esi
  40126f:	48 8b 3d 6a 42 20 00 	mov    0x20426a(%rip),%rdi        # 6054e0 <optarg@@GLIBC_2.2.5>
  401276:	e8 b5 fb ff ff       	callq  400e30 <fopen@plt>
  40127b:	48 89 05 8e 42 20 00 	mov    %rax,0x20428e(%rip)        # 605510 <infile>
  401282:	48 85 c0             	test   %rax,%rax
  401285:	0f 85 88 00 00 00    	jne    401313 <main+0x14e>
  40128b:	48 8b 0d 4e 42 20 00 	mov    0x20424e(%rip),%rcx        # 6054e0 <optarg@@GLIBC_2.2.5>
  401292:	ba 82 31 40 00       	mov    $0x403182,%edx
  401297:	be 01 00 00 00       	mov    $0x1,%esi
  40129c:	48 8b 3d 45 42 20 00 	mov    0x204245(%rip),%rdi        # 6054e8 <stderr@@GLIBC_2.2.5>
  4012a3:	e8 e8 fb ff ff       	callq  400e90 <__fprintf_chk@plt>
  4012a8:	b8 01 00 00 00       	mov    $0x1,%eax
  4012ad:	e9 e4 00 00 00       	jmpq   401396 <main+0x1d1>
  4012b2:	ba 10 00 00 00       	mov    $0x10,%edx
  4012b7:	be 00 00 00 00       	mov    $0x0,%esi
  4012bc:	48 8b 3d 1d 42 20 00 	mov    0x20421d(%rip),%rdi        # 6054e0 <optarg@@GLIBC_2.2.5>
  4012c3:	e8 88 fb ff ff       	callq  400e50 <strtoul@plt>
  4012c8:	41 89 c6             	mov    %eax,%r14d
  4012cb:	eb 46                	jmp    401313 <main+0x14e>
  4012cd:	ba 0a 00 00 00       	mov    $0xa,%edx
  4012d2:	be 00 00 00 00       	mov    $0x0,%esi
  4012d7:	48 8b 3d 02 42 20 00 	mov    0x204202(%rip),%rdi        # 6054e0 <optarg@@GLIBC_2.2.5>
  4012de:	e8 cd fa ff ff       	callq  400db0 <strtol@plt>
  4012e3:	41 89 c5             	mov    %eax,%r13d
  4012e6:	eb 2b                	jmp    401313 <main+0x14e>
  4012e8:	c7 05 b6 41 20 00 00 	movl   $0x0,0x2041b6(%rip)        # 6054a8 <notify>
  4012ef:	00 00 00 
  4012f2:	eb 1f                	jmp    401313 <main+0x14e>
  4012f4:	0f be d2             	movsbl %dl,%edx
  4012f7:	be 9f 31 40 00       	mov    $0x40319f,%esi
  4012fc:	bf 01 00 00 00       	mov    $0x1,%edi
  401301:	b8 00 00 00 00       	mov    $0x0,%eax
  401306:	e8 15 fb ff ff       	callq  400e20 <__printf_chk@plt>
  40130b:	48 8b 3b             	mov    (%rbx),%rdi
  40130e:	e8 a3 fc ff ff       	callq  400fb6 <usage>
  401313:	48 89 ea             	mov    %rbp,%rdx
  401316:	48 89 de             	mov    %rbx,%rsi
  401319:	44 89 e7             	mov    %r12d,%edi
  40131c:	e8 1f fb ff ff       	callq  400e40 <getopt@plt>
  401321:	89 c2                	mov    %eax,%edx
  401323:	3c ff                	cmp    $0xff,%al
  401325:	0f 85 22 ff ff ff    	jne    40124d <main+0x88>
  40132b:	be 01 00 00 00       	mov    $0x1,%esi
  401330:	44 89 ef             	mov    %r13d,%edi
  401333:	e8 08 fd ff ff       	callq  401040 <initialize_target>
  401338:	83 3d e9 41 20 00 00 	cmpl   $0x0,0x2041e9(%rip)        # 605528 <is_checker>
  40133f:	74 2a                	je     40136b <main+0x1a6>
  401341:	44 3b 35 d8 41 20 00 	cmp    0x2041d8(%rip),%r14d        # 605520 <authkey>
  401348:	74 21                	je     40136b <main+0x1a6>
  40134a:	44 89 f2             	mov    %r14d,%edx
  40134d:	be d8 30 40 00       	mov    $0x4030d8,%esi
  401352:	bf 01 00 00 00       	mov    $0x1,%edi
  401357:	b8 00 00 00 00       	mov    $0x0,%eax
  40135c:	e8 bf fa ff ff       	callq  400e20 <__printf_chk@plt>
  401361:	b8 00 00 00 00       	mov    $0x0,%eax
  401366:	e8 62 08 00 00       	callq  401bcd <check_fail>
  40136b:	8b 15 b3 41 20 00    	mov    0x2041b3(%rip),%edx        # 605524 <cookie>
  401371:	be b2 31 40 00       	mov    $0x4031b2,%esi
  401376:	bf 01 00 00 00       	mov    $0x1,%edi
  40137b:	b8 00 00 00 00       	mov    $0x0,%eax
  401380:	e8 9b fa ff ff       	callq  400e20 <__printf_chk@plt>
  401385:	48 8b 3d 14 41 20 00 	mov    0x204114(%rip),%rdi        # 6054a0 <buf_offset>
  40138c:	e8 dd 0c 00 00       	callq  40206e <launch>
  401391:	b8 00 00 00 00       	mov    $0x0,%eax
  401396:	5b                   	pop    %rbx
  401397:	5d                   	pop    %rbp
  401398:	41 5c                	pop    %r12
  40139a:	41 5d                	pop    %r13
  40139c:	41 5e                	pop    %r14
  40139e:	c3                   	retq   

000000000040139f <scramble>:
  40139f:	b8 00 00 00 00       	mov    $0x0,%eax
  4013a4:	eb 11                	jmp    4013b7 <scramble+0x18>
  4013a6:	69 d0 48 77 00 00    	imul   $0x7748,%eax,%edx
  4013ac:	01 fa                	add    %edi,%edx
  4013ae:	89 c1                	mov    %eax,%ecx
  4013b0:	89 54 8c c8          	mov    %edx,-0x38(%rsp,%rcx,4)
  4013b4:	83 c0 01             	add    $0x1,%eax
  4013b7:	83 f8 09             	cmp    $0x9,%eax
  4013ba:	76 ea                	jbe    4013a6 <scramble+0x7>
  4013bc:	8b 44 24 d4          	mov    -0x2c(%rsp),%eax
  4013c0:	69 c0 65 bf 00 00    	imul   $0xbf65,%eax,%eax
  4013c6:	89 44 24 d4          	mov    %eax,-0x2c(%rsp)
  4013ca:	8b 44 24 c8          	mov    -0x38(%rsp),%eax
  4013ce:	69 c0 23 bb 00 00    	imul   $0xbb23,%eax,%eax
  4013d4:	89 44 24 c8          	mov    %eax,-0x38(%rsp)
  4013d8:	8b 44 24 ec          	mov    -0x14(%rsp),%eax
  4013dc:	69 c0 50 27 00 00    	imul   $0x2750,%eax,%eax
  4013e2:	89 44 24 ec          	mov    %eax,-0x14(%rsp)
  4013e6:	8b 44 24 dc          	mov    -0x24(%rsp),%eax
  4013ea:	69 c0 a0 83 00 00    	imul   $0x83a0,%eax,%eax
  4013f0:	89 44 24 dc          	mov    %eax,-0x24(%rsp)
  4013f4:	8b 44 24 e4          	mov    -0x1c(%rsp),%eax
  4013f8:	69 c0 24 23 00 00    	imul   $0x2324,%eax,%eax
  4013fe:	89 44 24 e4          	mov    %eax,-0x1c(%rsp)
  401402:	8b 44 24 dc          	mov    -0x24(%rsp),%eax
  401406:	69 c0 25 d7 00 00    	imul   $0xd725,%eax,%eax
  40140c:	89 44 24 dc          	mov    %eax,-0x24(%rsp)
  401410:	8b 44 24 c8          	mov    -0x38(%rsp),%eax
  401414:	69 c0 5f e4 00 00    	imul   $0xe45f,%eax,%eax
  40141a:	89 44 24 c8          	mov    %eax,-0x38(%rsp)
  40141e:	8b 44 24 c8          	mov    -0x38(%rsp),%eax
  401422:	69 c0 c5 df 00 00    	imul   $0xdfc5,%eax,%eax
  401428:	89 44 24 c8          	mov    %eax,-0x38(%rsp)
  40142c:	8b 44 24 cc          	mov    -0x34(%rsp),%eax
  401430:	69 c0 2f db 00 00    	imul   $0xdb2f,%eax,%eax
  401436:	89 44 24 cc          	mov    %eax,-0x34(%rsp)
  40143a:	8b 44 24 d0          	mov    -0x30(%rsp),%eax
  40143e:	69 c0 8b 07 00 00    	imul   $0x78b,%eax,%eax
  401444:	89 44 24 d0          	mov    %eax,-0x30(%rsp)
  401448:	8b 44 24 e0          	mov    -0x20(%rsp),%eax
  40144c:	69 c0 69 e1 00 00    	imul   $0xe169,%eax,%eax
  401452:	89 44 24 e0          	mov    %eax,-0x20(%rsp)
  401456:	8b 44 24 cc          	mov    -0x34(%rsp),%eax
  40145a:	69 c0 b9 d4 00 00    	imul   $0xd4b9,%eax,%eax
  401460:	89 44 24 cc          	mov    %eax,-0x34(%rsp)
  401464:	8b 44 24 e0          	mov    -0x20(%rsp),%eax
  401468:	69 c0 27 40 00 00    	imul   $0x4027,%eax,%eax
  40146e:	89 44 24 e0          	mov    %eax,-0x20(%rsp)
  401472:	8b 44 24 d4          	mov    -0x2c(%rsp),%eax
  401476:	69 c0 18 aa 00 00    	imul   $0xaa18,%eax,%eax
  40147c:	89 44 24 d4          	mov    %eax,-0x2c(%rsp)
  401480:	8b 44 24 cc          	mov    -0x34(%rsp),%eax
  401484:	69 c0 4d cb 00 00    	imul   $0xcb4d,%eax,%eax
  40148a:	89 44 24 cc          	mov    %eax,-0x34(%rsp)
  40148e:	8b 44 24 e0          	mov    -0x20(%rsp),%eax
  401492:	69 c0 fb 3f 00 00    	imul   $0x3ffb,%eax,%eax
  401498:	89 44 24 e0          	mov    %eax,-0x20(%rsp)
  40149c:	8b 44 24 d8          	mov    -0x28(%rsp),%eax
  4014a0:	69 c0 56 a0 00 00    	imul   $0xa056,%eax,%eax
  4014a6:	89 44 24 d8          	mov    %eax,-0x28(%rsp)
  4014aa:	8b 44 24 e0          	mov    -0x20(%rsp),%eax
  4014ae:	69 c0 af 47 00 00    	imul   $0x47af,%eax,%eax
  4014b4:	89 44 24 e0          	mov    %eax,-0x20(%rsp)
  4014b8:	8b 44 24 d4          	mov    -0x2c(%rsp),%eax
  4014bc:	69 c0 6c 9e 00 00    	imul   $0x9e6c,%eax,%eax
  4014c2:	89 44 24 d4          	mov    %eax,-0x2c(%rsp)
  4014c6:	8b 44 24 e8          	mov    -0x18(%rsp),%eax
  4014ca:	69 c0 ef 36 00 00    	imul   $0x36ef,%eax,%eax
  4014d0:	89 44 24 e8          	mov    %eax,-0x18(%rsp)
  4014d4:	8b 44 24 dc          	mov    -0x24(%rsp),%eax
  4014d8:	69 c0 f6 6c 00 00    	imul   $0x6cf6,%eax,%eax
  4014de:	89 44 24 dc          	mov    %eax,-0x24(%rsp)
  4014e2:	8b 44 24 dc          	mov    -0x24(%rsp),%eax
  4014e6:	69 c0 c0 3b 00 00    	imul   $0x3bc0,%eax,%eax
  4014ec:	89 44 24 dc          	mov    %eax,-0x24(%rsp)
  4014f0:	8b 44 24 e4          	mov    -0x1c(%rsp),%eax
  4014f4:	69 c0 15 c5 00 00    	imul   $0xc515,%eax,%eax
  4014fa:	89 44 24 e4          	mov    %eax,-0x1c(%rsp)
  4014fe:	8b 44 24 c8          	mov    -0x38(%rsp),%eax
  401502:	69 c0 7f f9 00 00    	imul   $0xf97f,%eax,%eax
  401508:	89 44 24 c8          	mov    %eax,-0x38(%rsp)
  40150c:	8b 44 24 e8          	mov    -0x18(%rsp),%eax
  401510:	69 c0 e4 f3 00 00    	imul   $0xf3e4,%eax,%eax
  401516:	89 44 24 e8          	mov    %eax,-0x18(%rsp)
  40151a:	8b 44 24 d0          	mov    -0x30(%rsp),%eax
  40151e:	69 c0 10 9a 00 00    	imul   $0x9a10,%eax,%eax
  401524:	89 44 24 d0          	mov    %eax,-0x30(%rsp)
  401528:	8b 44 24 e4          	mov    -0x1c(%rsp),%eax
  40152c:	69 c0 5c 0d 00 00    	imul   $0xd5c,%eax,%eax
  401532:	89 44 24 e4          	mov    %eax,-0x1c(%rsp)
  401536:	8b 44 24 c8          	mov    -0x38(%rsp),%eax
  40153a:	69 c0 f3 4c 00 00    	imul   $0x4cf3,%eax,%eax
  401540:	89 44 24 c8          	mov    %eax,-0x38(%rsp)
  401544:	8b 44 24 d4          	mov    -0x2c(%rsp),%eax
  401548:	69 c0 1d 61 00 00    	imul   $0x611d,%eax,%eax
  40154e:	89 44 24 d4          	mov    %eax,-0x2c(%rsp)
  401552:	8b 44 24 e4          	mov    -0x1c(%rsp),%eax
  401556:	69 c0 37 16 00 00    	imul   $0x1637,%eax,%eax
  40155c:	89 44 24 e4          	mov    %eax,-0x1c(%rsp)
  401560:	8b 44 24 d8          	mov    -0x28(%rsp),%eax
  401564:	69 c0 45 1a 00 00    	imul   $0x1a45,%eax,%eax
  40156a:	89 44 24 d8          	mov    %eax,-0x28(%rsp)
  40156e:	8b 44 24 dc          	mov    -0x24(%rsp),%eax
  401572:	69 c0 1d b7 00 00    	imul   $0xb71d,%eax,%eax
  401578:	89 44 24 dc          	mov    %eax,-0x24(%rsp)
  40157c:	8b 44 24 d0          	mov    -0x30(%rsp),%eax
  401580:	69 c0 51 51 00 00    	imul   $0x5151,%eax,%eax
  401586:	89 44 24 d0          	mov    %eax,-0x30(%rsp)
  40158a:	8b 44 24 dc          	mov    -0x24(%rsp),%eax
  40158e:	69 c0 42 82 00 00    	imul   $0x8242,%eax,%eax
  401594:	89 44 24 dc          	mov    %eax,-0x24(%rsp)
  401598:	8b 44 24 e4          	mov    -0x1c(%rsp),%eax
  40159c:	69 c0 1b ca 00 00    	imul   $0xca1b,%eax,%eax
  4015a2:	89 44 24 e4          	mov    %eax,-0x1c(%rsp)
  4015a6:	8b 44 24 dc          	mov    -0x24(%rsp),%eax
  4015aa:	69 c0 4d b1 00 00    	imul   $0xb14d,%eax,%eax
  4015b0:	89 44 24 dc          	mov    %eax,-0x24(%rsp)
  4015b4:	8b 44 24 cc          	mov    -0x34(%rsp),%eax
  4015b8:	69 c0 46 c7 00 00    	imul   $0xc746,%eax,%eax
  4015be:	89 44 24 cc          	mov    %eax,-0x34(%rsp)
  4015c2:	8b 44 24 cc          	mov    -0x34(%rsp),%eax
  4015c6:	69 c0 66 88 00 00    	imul   $0x8866,%eax,%eax
  4015cc:	89 44 24 cc          	mov    %eax,-0x34(%rsp)
  4015d0:	8b 44 24 e4          	mov    -0x1c(%rsp),%eax
  4015d4:	69 c0 92 08 00 00    	imul   $0x892,%eax,%eax
  4015da:	89 44 24 e4          	mov    %eax,-0x1c(%rsp)
  4015de:	8b 44 24 d4          	mov    -0x2c(%rsp),%eax
  4015e2:	69 c0 9f 2c 00 00    	imul   $0x2c9f,%eax,%eax
  4015e8:	89 44 24 d4          	mov    %eax,-0x2c(%rsp)
  4015ec:	8b 44 24 dc          	mov    -0x24(%rsp),%eax
  4015f0:	69 c0 f0 82 00 00    	imul   $0x82f0,%eax,%eax
  4015f6:	89 44 24 dc          	mov    %eax,-0x24(%rsp)
  4015fa:	8b 44 24 d0          	mov    -0x30(%rsp),%eax
  4015fe:	69 c0 c5 d1 00 00    	imul   $0xd1c5,%eax,%eax
  401604:	89 44 24 d0          	mov    %eax,-0x30(%rsp)
  401608:	8b 44 24 e8          	mov    -0x18(%rsp),%eax
  40160c:	69 c0 78 35 00 00    	imul   $0x3578,%eax,%eax
  401612:	89 44 24 e8          	mov    %eax,-0x18(%rsp)
  401616:	8b 44 24 c8          	mov    -0x38(%rsp),%eax
  40161a:	69 c0 d0 dd 00 00    	imul   $0xddd0,%eax,%eax
  401620:	89 44 24 c8          	mov    %eax,-0x38(%rsp)
  401624:	8b 44 24 ec          	mov    -0x14(%rsp),%eax
  401628:	69 c0 c3 15 00 00    	imul   $0x15c3,%eax,%eax
  40162e:	89 44 24 ec          	mov    %eax,-0x14(%rsp)
  401632:	8b 44 24 d0          	mov    -0x30(%rsp),%eax
  401636:	69 c0 01 c3 00 00    	imul   $0xc301,%eax,%eax
  40163c:	89 44 24 d0          	mov    %eax,-0x30(%rsp)
  401640:	8b 44 24 d0          	mov    -0x30(%rsp),%eax
  401644:	69 c0 3a 4a 00 00    	imul   $0x4a3a,%eax,%eax
  40164a:	89 44 24 d0          	mov    %eax,-0x30(%rsp)
  40164e:	8b 44 24 dc          	mov    -0x24(%rsp),%eax
  401652:	69 c0 a4 ea 00 00    	imul   $0xeaa4,%eax,%eax
  401658:	89 44 24 dc          	mov    %eax,-0x24(%rsp)
  40165c:	8b 44 24 d0          	mov    -0x30(%rsp),%eax
  401660:	69 c0 eb 78 00 00    	imul   $0x78eb,%eax,%eax
  401666:	89 44 24 d0          	mov    %eax,-0x30(%rsp)
  40166a:	8b 44 24 c8          	mov    -0x38(%rsp),%eax
  40166e:	69 c0 48 8b 00 00    	imul   $0x8b48,%eax,%eax
  401674:	89 44 24 c8          	mov    %eax,-0x38(%rsp)
  401678:	8b 44 24 e4          	mov    -0x1c(%rsp),%eax
  40167c:	69 c0 17 26 00 00    	imul   $0x2617,%eax,%eax
  401682:	89 44 24 e4          	mov    %eax,-0x1c(%rsp)
  401686:	8b 44 24 e0          	mov    -0x20(%rsp),%eax
  40168a:	69 c0 18 7a 00 00    	imul   $0x7a18,%eax,%eax
  401690:	89 44 24 e0          	mov    %eax,-0x20(%rsp)
  401694:	8b 44 24 d0          	mov    -0x30(%rsp),%eax
  401698:	69 c0 a3 29 00 00    	imul   $0x29a3,%eax,%eax
  40169e:	89 44 24 d0          	mov    %eax,-0x30(%rsp)
  4016a2:	8b 44 24 cc          	mov    -0x34(%rsp),%eax
  4016a6:	69 c0 b9 79 00 00    	imul   $0x79b9,%eax,%eax
  4016ac:	89 44 24 cc          	mov    %eax,-0x34(%rsp)
  4016b0:	8b 44 24 cc          	mov    -0x34(%rsp),%eax
  4016b4:	69 c0 64 84 00 00    	imul   $0x8464,%eax,%eax
  4016ba:	89 44 24 cc          	mov    %eax,-0x34(%rsp)
  4016be:	8b 44 24 e8          	mov    -0x18(%rsp),%eax
  4016c2:	69 c0 ac 2e 00 00    	imul   $0x2eac,%eax,%eax
  4016c8:	89 44 24 e8          	mov    %eax,-0x18(%rsp)
  4016cc:	8b 44 24 cc          	mov    -0x34(%rsp),%eax
  4016d0:	69 c0 08 6d 00 00    	imul   $0x6d08,%eax,%eax
  4016d6:	89 44 24 cc          	mov    %eax,-0x34(%rsp)
  4016da:	8b 44 24 dc          	mov    -0x24(%rsp),%eax
  4016de:	69 c0 a0 97 00 00    	imul   $0x97a0,%eax,%eax
  4016e4:	89 44 24 dc          	mov    %eax,-0x24(%rsp)
  4016e8:	8b 44 24 e4          	mov    -0x1c(%rsp),%eax
  4016ec:	69 c0 29 1f 00 00    	imul   $0x1f29,%eax,%eax
  4016f2:	89 44 24 e4          	mov    %eax,-0x1c(%rsp)
  4016f6:	8b 44 24 e4          	mov    -0x1c(%rsp),%eax
  4016fa:	69 c0 17 39 00 00    	imul   $0x3917,%eax,%eax
  401700:	89 44 24 e4          	mov    %eax,-0x1c(%rsp)
  401704:	8b 44 24 d0          	mov    -0x30(%rsp),%eax
  401708:	69 c0 78 69 00 00    	imul   $0x6978,%eax,%eax
  40170e:	89 44 24 d0          	mov    %eax,-0x30(%rsp)
  401712:	8b 44 24 c8          	mov    -0x38(%rsp),%eax
  401716:	69 c0 f5 64 00 00    	imul   $0x64f5,%eax,%eax
  40171c:	89 44 24 c8          	mov    %eax,-0x38(%rsp)
  401720:	8b 44 24 cc          	mov    -0x34(%rsp),%eax
  401724:	69 c0 36 76 00 00    	imul   $0x7636,%eax,%eax
  40172a:	89 44 24 cc          	mov    %eax,-0x34(%rsp)
  40172e:	8b 44 24 cc          	mov    -0x34(%rsp),%eax
  401732:	69 c0 3d 4f 00 00    	imul   $0x4f3d,%eax,%eax
  401738:	89 44 24 cc          	mov    %eax,-0x34(%rsp)
  40173c:	8b 44 24 e4          	mov    -0x1c(%rsp),%eax
  401740:	69 c0 7f bc 00 00    	imul   $0xbc7f,%eax,%eax
  401746:	89 44 24 e4          	mov    %eax,-0x1c(%rsp)
  40174a:	8b 44 24 dc          	mov    -0x24(%rsp),%eax
  40174e:	69 c0 28 32 00 00    	imul   $0x3228,%eax,%eax
  401754:	89 44 24 dc          	mov    %eax,-0x24(%rsp)
  401758:	8b 44 24 d8          	mov    -0x28(%rsp),%eax
  40175c:	69 c0 1b 17 00 00    	imul   $0x171b,%eax,%eax
  401762:	89 44 24 d8          	mov    %eax,-0x28(%rsp)
  401766:	8b 44 24 e8          	mov    -0x18(%rsp),%eax
  40176a:	69 c0 f5 cf 00 00    	imul   $0xcff5,%eax,%eax
  401770:	89 44 24 e8          	mov    %eax,-0x18(%rsp)
  401774:	8b 44 24 c8          	mov    -0x38(%rsp),%eax
  401778:	69 c0 be ae 00 00    	imul   $0xaebe,%eax,%eax
  40177e:	89 44 24 c8          	mov    %eax,-0x38(%rsp)
  401782:	8b 44 24 e8          	mov    -0x18(%rsp),%eax
  401786:	69 c0 f3 72 00 00    	imul   $0x72f3,%eax,%eax
  40178c:	89 44 24 e8          	mov    %eax,-0x18(%rsp)
  401790:	8b 44 24 e8          	mov    -0x18(%rsp),%eax
  401794:	69 c0 07 f0 00 00    	imul   $0xf007,%eax,%eax
  40179a:	89 44 24 e8          	mov    %eax,-0x18(%rsp)
  40179e:	8b 44 24 d8          	mov    -0x28(%rsp),%eax
  4017a2:	69 c0 76 3a 00 00    	imul   $0x3a76,%eax,%eax
  4017a8:	89 44 24 d8          	mov    %eax,-0x28(%rsp)
  4017ac:	8b 44 24 cc          	mov    -0x34(%rsp),%eax
  4017b0:	69 c0 11 a2 00 00    	imul   $0xa211,%eax,%eax
  4017b6:	89 44 24 cc          	mov    %eax,-0x34(%rsp)
  4017ba:	8b 44 24 d4          	mov    -0x2c(%rsp),%eax
  4017be:	69 c0 91 ff 00 00    	imul   $0xff91,%eax,%eax
  4017c4:	89 44 24 d4          	mov    %eax,-0x2c(%rsp)
  4017c8:	8b 44 24 d8          	mov    -0x28(%rsp),%eax
  4017cc:	69 c0 88 47 00 00    	imul   $0x4788,%eax,%eax
  4017d2:	89 44 24 d8          	mov    %eax,-0x28(%rsp)
  4017d6:	8b 44 24 e0          	mov    -0x20(%rsp),%eax
  4017da:	69 c0 28 f6 00 00    	imul   $0xf628,%eax,%eax
  4017e0:	89 44 24 e0          	mov    %eax,-0x20(%rsp)
  4017e4:	8b 44 24 d4          	mov    -0x2c(%rsp),%eax
  4017e8:	69 c0 c0 34 00 00    	imul   $0x34c0,%eax,%eax
  4017ee:	89 44 24 d4          	mov    %eax,-0x2c(%rsp)
  4017f2:	8b 44 24 e0          	mov    -0x20(%rsp),%eax
  4017f6:	69 c0 b3 64 00 00    	imul   $0x64b3,%eax,%eax
  4017fc:	89 44 24 e0          	mov    %eax,-0x20(%rsp)
  401800:	8b 44 24 e0          	mov    -0x20(%rsp),%eax
  401804:	69 c0 b7 aa 00 00    	imul   $0xaab7,%eax,%eax
  40180a:	89 44 24 e0          	mov    %eax,-0x20(%rsp)
  40180e:	8b 44 24 c8          	mov    -0x38(%rsp),%eax
  401812:	69 c0 18 9a 00 00    	imul   $0x9a18,%eax,%eax
  401818:	89 44 24 c8          	mov    %eax,-0x38(%rsp)
  40181c:	8b 44 24 d8          	mov    -0x28(%rsp),%eax
  401820:	69 c0 76 8e 00 00    	imul   $0x8e76,%eax,%eax
  401826:	89 44 24 d8          	mov    %eax,-0x28(%rsp)
  40182a:	8b 44 24 d4          	mov    -0x2c(%rsp),%eax
  40182e:	69 c0 cd 49 00 00    	imul   $0x49cd,%eax,%eax
  401834:	89 44 24 d4          	mov    %eax,-0x2c(%rsp)
  401838:	ba 00 00 00 00       	mov    $0x0,%edx
  40183d:	b8 00 00 00 00       	mov    $0x0,%eax
  401842:	eb 0b                	jmp    40184f <scramble+0x4b0>
  401844:	89 d1                	mov    %edx,%ecx
  401846:	8b 4c 8c c8          	mov    -0x38(%rsp,%rcx,4),%ecx
  40184a:	01 c8                	add    %ecx,%eax
  40184c:	83 c2 01             	add    $0x1,%edx
  40184f:	83 fa 09             	cmp    $0x9,%edx
  401852:	76 f0                	jbe    401844 <scramble+0x4a5>
  401854:	f3 c3                	repz retq 

0000000000401856 <getbuf>:
  401856:	48 83 ec 38          	sub    $0x38,%rsp
  40185a:	48 89 e7             	mov    %rsp,%rdi
  40185d:	e8 a0 03 00 00       	callq  401c02 <Gets>
  401862:	b8 01 00 00 00       	mov    $0x1,%eax
  401867:	48 83 c4 38          	add    $0x38,%rsp
  40186b:	c3                   	retq   

000000000040186c <touch1>:
  40186c:	48 83 ec 08          	sub    $0x8,%rsp
  401870:	c7 05 a2 3c 20 00 01 	movl   $0x1,0x203ca2(%rip)        # 60551c <vlevel>
  401877:	00 00 00 
  40187a:	bf 86 32 40 00       	mov    $0x403286,%edi
  40187f:	e8 5c f4 ff ff       	callq  400ce0 <puts@plt>
  401884:	bf 01 00 00 00       	mov    $0x1,%edi
  401889:	e8 b9 05 00 00       	callq  401e47 <validate>
  40188e:	bf 00 00 00 00       	mov    $0x0,%edi
  401893:	e8 d8 f5 ff ff       	callq  400e70 <exit@plt>

0000000000401898 <touch2>:
  401898:	48 83 ec 08          	sub    $0x8,%rsp
  40189c:	89 fa                	mov    %edi,%edx
  40189e:	c7 05 74 3c 20 00 02 	movl   $0x2,0x203c74(%rip)        # 60551c <vlevel>
  4018a5:	00 00 00 
  4018a8:	39 3d 76 3c 20 00    	cmp    %edi,0x203c76(%rip)        # 605524 <cookie>
  4018ae:	75 20                	jne    4018d0 <touch2+0x38>
  4018b0:	be a8 32 40 00       	mov    $0x4032a8,%esi
  4018b5:	bf 01 00 00 00       	mov    $0x1,%edi
  4018ba:	b8 00 00 00 00       	mov    $0x0,%eax
  4018bf:	e8 5c f5 ff ff       	callq  400e20 <__printf_chk@plt>
  4018c4:	bf 02 00 00 00       	mov    $0x2,%edi
  4018c9:	e8 79 05 00 00       	callq  401e47 <validate>
  4018ce:	eb 1e                	jmp    4018ee <touch2+0x56>
  4018d0:	be d0 32 40 00       	mov    $0x4032d0,%esi
  4018d5:	bf 01 00 00 00       	mov    $0x1,%edi
  4018da:	b8 00 00 00 00       	mov    $0x0,%eax
  4018df:	e8 3c f5 ff ff       	callq  400e20 <__printf_chk@plt>
  4018e4:	bf 02 00 00 00       	mov    $0x2,%edi
  4018e9:	e8 1b 06 00 00       	callq  401f09 <fail>
  4018ee:	bf 00 00 00 00       	mov    $0x0,%edi
  4018f3:	e8 78 f5 ff ff       	callq  400e70 <exit@plt>

00000000004018f8 <hexmatch>:
  4018f8:	41 54                	push   %r12
  4018fa:	55                   	push   %rbp
  4018fb:	53                   	push   %rbx
  4018fc:	48 83 c4 80          	add    $0xffffffffffffff80,%rsp
  401900:	89 fd                	mov    %edi,%ebp
  401902:	48 89 f3             	mov    %rsi,%rbx
  401905:	64 48 8b 04 25 28 00 	mov    %fs:0x28,%rax
  40190c:	00 00 
  40190e:	48 89 44 24 78       	mov    %rax,0x78(%rsp)
  401913:	31 c0                	xor    %eax,%eax
  401915:	e8 c6 f4 ff ff       	callq  400de0 <random@plt>
  40191a:	48 89 c1             	mov    %rax,%rcx
  40191d:	48 ba 0b d7 a3 70 3d 	movabs $0xa3d70a3d70a3d70b,%rdx
  401924:	0a d7 a3 
  401927:	48 f7 ea             	imul   %rdx
  40192a:	48 01 ca             	add    %rcx,%rdx
  40192d:	48 c1 fa 06          	sar    $0x6,%rdx
  401931:	48 89 c8             	mov    %rcx,%rax
  401934:	48 c1 f8 3f          	sar    $0x3f,%rax
  401938:	48 29 c2             	sub    %rax,%rdx
  40193b:	48 8d 04 92          	lea    (%rdx,%rdx,4),%rax
  40193f:	48 8d 14 80          	lea    (%rax,%rax,4),%rdx
  401943:	48 8d 04 95 00 00 00 	lea    0x0(,%rdx,4),%rax
  40194a:	00 
  40194b:	48 29 c1             	sub    %rax,%rcx
  40194e:	4c 8d 24 0c          	lea    (%rsp,%rcx,1),%r12
  401952:	41 89 e8             	mov    %ebp,%r8d
  401955:	b9 a3 32 40 00       	mov    $0x4032a3,%ecx
  40195a:	48 c7 c2 ff ff ff ff 	mov    $0xffffffffffffffff,%rdx
  401961:	be 01 00 00 00       	mov    $0x1,%esi
  401966:	4c 89 e7             	mov    %r12,%rdi
  401969:	b8 00 00 00 00       	mov    $0x0,%eax
  40196e:	e8 2d f5 ff ff       	callq  400ea0 <__sprintf_chk@plt>
  401973:	ba 09 00 00 00       	mov    $0x9,%edx
  401978:	4c 89 e6             	mov    %r12,%rsi
  40197b:	48 89 df             	mov    %rbx,%rdi
  40197e:	e8 3d f3 ff ff       	callq  400cc0 <strncmp@plt>
  401983:	85 c0                	test   %eax,%eax
  401985:	0f 94 c0             	sete   %al
  401988:	48 8b 5c 24 78       	mov    0x78(%rsp),%rbx
  40198d:	64 48 33 1c 25 28 00 	xor    %fs:0x28,%rbx
  401994:	00 00 
  401996:	74 05                	je     40199d <hexmatch+0xa5>
  401998:	e8 63 f3 ff ff       	callq  400d00 <__stack_chk_fail@plt>
  40199d:	0f b6 c0             	movzbl %al,%eax
  4019a0:	48 83 ec 80          	sub    $0xffffffffffffff80,%rsp
  4019a4:	5b                   	pop    %rbx
  4019a5:	5d                   	pop    %rbp
  4019a6:	41 5c                	pop    %r12
  4019a8:	c3                   	retq   

00000000004019a9 <touch3>:
  4019a9:	53                   	push   %rbx
  4019aa:	48 89 fb             	mov    %rdi,%rbx
  4019ad:	c7 05 65 3b 20 00 03 	movl   $0x3,0x203b65(%rip)        # 60551c <vlevel>
  4019b4:	00 00 00 
  4019b7:	48 89 fe             	mov    %rdi,%rsi
  4019ba:	8b 3d 64 3b 20 00    	mov    0x203b64(%rip),%edi        # 605524 <cookie>
  4019c0:	e8 33 ff ff ff       	callq  4018f8 <hexmatch>
  4019c5:	85 c0                	test   %eax,%eax
  4019c7:	74 23                	je     4019ec <touch3+0x43>
  4019c9:	48 89 da             	mov    %rbx,%rdx
  4019cc:	be f8 32 40 00       	mov    $0x4032f8,%esi
  4019d1:	bf 01 00 00 00       	mov    $0x1,%edi
  4019d6:	b8 00 00 00 00       	mov    $0x0,%eax
  4019db:	e8 40 f4 ff ff       	callq  400e20 <__printf_chk@plt>
  4019e0:	bf 03 00 00 00       	mov    $0x3,%edi
  4019e5:	e8 5d 04 00 00       	callq  401e47 <validate>
  4019ea:	eb 21                	jmp    401a0d <touch3+0x64>
  4019ec:	48 89 da             	mov    %rbx,%rdx
  4019ef:	be 20 33 40 00       	mov    $0x403320,%esi
  4019f4:	bf 01 00 00 00       	mov    $0x1,%edi
  4019f9:	b8 00 00 00 00       	mov    $0x0,%eax
  4019fe:	e8 1d f4 ff ff       	callq  400e20 <__printf_chk@plt>
  401a03:	bf 03 00 00 00       	mov    $0x3,%edi
  401a08:	e8 fc 04 00 00       	callq  401f09 <fail>
  401a0d:	bf 00 00 00 00       	mov    $0x0,%edi
  401a12:	e8 59 f4 ff ff       	callq  400e70 <exit@plt>

0000000000401a17 <test>:
  401a17:	48 83 ec 08          	sub    $0x8,%rsp
  401a1b:	b8 00 00 00 00       	mov    $0x0,%eax
  401a20:	e8 31 fe ff ff       	callq  401856 <getbuf>
  401a25:	89 c2                	mov    %eax,%edx
  401a27:	be 48 33 40 00       	mov    $0x403348,%esi
  401a2c:	bf 01 00 00 00       	mov    $0x1,%edi
  401a31:	b8 00 00 00 00       	mov    $0x0,%eax
  401a36:	e8 e5 f3 ff ff       	callq  400e20 <__printf_chk@plt>
  401a3b:	48 83 c4 08          	add    $0x8,%rsp
  401a3f:	c3                   	retq   

0000000000401a40 <start_farm>:
  401a40:	b8 01 00 00 00       	mov    $0x1,%eax
  401a45:	c3                   	retq   

0000000000401a46 <setval_312>:
  401a46:	c7 07 df 52 48 c3    	movl   $0xc34852df,(%rdi)
  401a4c:	c3                   	retq   

0000000000401a4d <setval_309>:
  401a4d:	c7 07 bf 08 58 90    	movl   $0x905808bf,(%rdi)
  401a53:	c3                   	retq   

0000000000401a54 <getval_278>:
  401a54:	b8 c8 89 c7 c3       	mov    $0xc3c789c8,%eax
  401a59:	c3                   	retq   

0000000000401a5a <addval_257>:
  401a5a:	8d 87 a9 4c 89 c7    	lea    -0x3876b357(%rdi),%eax
  401a60:	c3                   	retq   

0000000000401a61 <addval_400>:
  401a61:	8d 87 cf 48 89 c7    	lea    -0x3876b731(%rdi),%eax
  401a67:	c3                   	retq   

0000000000401a68 <getval_485>:
  401a68:	b8 ef 54 58 94       	mov    $0x945854ef,%eax
  401a6d:	c3                   	retq   

0000000000401a6e <addval_119>:
  401a6e:	8d 87 80 48 89 c7    	lea    -0x3876b780(%rdi),%eax
  401a74:	c3                   	retq   

0000000000401a75 <addval_368>:
  401a75:	8d 87 0e bd 58 90    	lea    -0x6fa742f2(%rdi),%eax
  401a7b:	c3                   	retq   

0000000000401a7c <mid_farm>:
  401a7c:	b8 01 00 00 00       	mov    $0x1,%eax
  401a81:	c3                   	retq   

0000000000401a82 <add_xy>:
  401a82:	48 8d 04 37          	lea    (%rdi,%rsi,1),%rax
  401a86:	c3                   	retq   

0000000000401a87 <setval_245>:
  401a87:	c7 07 89 d1 90 90    	movl   $0x9090d189,(%rdi)
  401a8d:	c3                   	retq   

0000000000401a8e <getval_155>:
  401a8e:	b8 09 c2 38 d2       	mov    $0xd238c209,%eax
  401a93:	c3                   	retq   

0000000000401a94 <addval_217>:
  401a94:	8d 87 c5 89 c2 90    	lea    -0x6f3d763b(%rdi),%eax
  401a9a:	c3                   	retq   

0000000000401a9b <addval_209>:
  401a9b:	8d 87 a9 d1 38 db    	lea    -0x24c72e57(%rdi),%eax
  401aa1:	c3                   	retq   

0000000000401aa2 <getval_103>:
  401aa2:	b8 09 ce c3 00       	mov    $0xc3ce09,%eax
  401aa7:	c3                   	retq   

0000000000401aa8 <addval_275>:
  401aa8:	8d 87 48 89 e0 91    	lea    -0x6e1f76b8(%rdi),%eax
  401aae:	c3                   	retq   

0000000000401aaf <getval_190>:
  401aaf:	b8 c9 ce 20 d2       	mov    $0xd220cec9,%eax
  401ab4:	c3                   	retq   

0000000000401ab5 <addval_458>:
  401ab5:	8d 87 89 c2 30 db    	lea    -0x24cf3d77(%rdi),%eax
  401abb:	c3                   	retq   

0000000000401abc <addval_412>:
  401abc:	8d 87 89 ce 20 db    	lea    -0x24df3177(%rdi),%eax
  401ac2:	c3                   	retq   

0000000000401ac3 <addval_241>:
  401ac3:	8d 87 48 89 e0 c2    	lea    -0x3d1f76b8(%rdi),%eax
  401ac9:	c3                   	retq   

0000000000401aca <addval_429>:
  401aca:	8d 87 89 c2 60 db    	lea    -0x249f3d77(%rdi),%eax
  401ad0:	c3                   	retq   

0000000000401ad1 <addval_443>:
  401ad1:	8d 87 f4 89 ce 94    	lea    -0x6b31760c(%rdi),%eax
  401ad7:	c3                   	retq   

0000000000401ad8 <getval_326>:
  401ad8:	b8 48 89 e0 c3       	mov    $0xc3e08948,%eax
  401add:	c3                   	retq   

0000000000401ade <addval_300>:
  401ade:	8d 87 48 c9 e0 c3    	lea    -0x3c1f36b8(%rdi),%eax
  401ae4:	c3                   	retq   

0000000000401ae5 <setval_191>:
  401ae5:	c7 07 88 d1 20 c9    	movl   $0xc920d188,(%rdi)
  401aeb:	c3                   	retq   

0000000000401aec <getval_393>:
  401aec:	b8 8b ce 20 d2       	mov    $0xd220ce8b,%eax
  401af1:	c3                   	retq   

0000000000401af2 <addval_299>:
  401af2:	8d 87 48 99 e0 c3    	lea    -0x3c1f66b8(%rdi),%eax
  401af8:	c3                   	retq   

0000000000401af9 <setval_462>:
  401af9:	c7 07 89 d1 38 db    	movl   $0xdb38d189,(%rdi)
  401aff:	c3                   	retq   

0000000000401b00 <getval_178>:
  401b00:	b8 48 89 e0 c7       	mov    $0xc7e08948,%eax
  401b05:	c3                   	retq   

0000000000401b06 <setval_247>:
  401b06:	c7 07 89 ce c2 08    	movl   $0x8c2ce89,(%rdi)
  401b0c:	c3                   	retq   

0000000000401b0d <setval_184>:
  401b0d:	c7 07 89 c2 90 90    	movl   $0x9090c289,(%rdi)
  401b13:	c3                   	retq   

0000000000401b14 <addval_234>:
  401b14:	8d 87 89 c2 78 d2    	lea    -0x2d873d77(%rdi),%eax
  401b1a:	c3                   	retq   

0000000000401b1b <addval_494>:
  401b1b:	8d 87 89 c2 28 db    	lea    -0x24d73d77(%rdi),%eax
  401b21:	c3                   	retq   

0000000000401b22 <addval_281>:
  401b22:	8d 87 89 c2 94 c9    	lea    -0x366b3d77(%rdi),%eax
  401b28:	c3                   	retq   

0000000000401b29 <getval_472>:
  401b29:	b8 88 d1 84 db       	mov    $0xdb84d188,%eax
  401b2e:	c3                   	retq   

0000000000401b2f <getval_431>:
  401b2f:	b8 08 89 e0 c3       	mov    $0xc3e08908,%eax
  401b34:	c3                   	retq   

0000000000401b35 <getval_192>:
  401b35:	b8 b6 89 d1 94       	mov    $0x94d189b6,%eax
  401b3a:	c3                   	retq   

0000000000401b3b <addval_354>:
  401b3b:	8d 87 48 89 e0 c3    	lea    -0x3c1f76b8(%rdi),%eax
  401b41:	c3                   	retq   

0000000000401b42 <getval_237>:
  401b42:	b8 8d ce 84 db       	mov    $0xdb84ce8d,%eax
  401b47:	c3                   	retq   

0000000000401b48 <addval_118>:
  401b48:	8d 87 99 d1 90 90    	lea    -0x6f6f2e67(%rdi),%eax
  401b4e:	c3                   	retq   

0000000000401b4f <setval_480>:
  401b4f:	c7 07 89 d1 78 c0    	movl   $0xc078d189,(%rdi)
  401b55:	c3                   	retq   

0000000000401b56 <getval_116>:
  401b56:	b8 54 89 ce c3       	mov    $0xc3ce8954,%eax
  401b5b:	c3                   	retq   

0000000000401b5c <end_farm>:
  401b5c:	b8 01 00 00 00       	mov    $0x1,%eax
  401b61:	c3                   	retq   

0000000000401b62 <save_char>:
  401b62:	8b 05 dc 45 20 00    	mov    0x2045dc(%rip),%eax        # 606144 <gets_cnt>
  401b68:	3d ff 03 00 00       	cmp    $0x3ff,%eax
  401b6d:	7f 49                	jg     401bb8 <save_char+0x56>
  401b6f:	8d 14 40             	lea    (%rax,%rax,2),%edx
  401b72:	89 f9                	mov    %edi,%ecx
  401b74:	c0 e9 04             	shr    $0x4,%cl
  401b77:	83 e1 0f             	and    $0xf,%ecx
  401b7a:	0f b6 b1 70 36 40 00 	movzbl 0x403670(%rcx),%esi
  401b81:	48 63 ca             	movslq %edx,%rcx
  401b84:	40 88 b1 40 55 60 00 	mov    %sil,0x605540(%rcx)
  401b8b:	8d 4a 01             	lea    0x1(%rdx),%ecx
  401b8e:	83 e7 0f             	and    $0xf,%edi
  401b91:	0f b6 b7 70 36 40 00 	movzbl 0x403670(%rdi),%esi
  401b98:	48 63 c9             	movslq %ecx,%rcx
  401b9b:	40 88 b1 40 55 60 00 	mov    %sil,0x605540(%rcx)
  401ba2:	83 c2 02             	add    $0x2,%edx
  401ba5:	48 63 d2             	movslq %edx,%rdx
  401ba8:	c6 82 40 55 60 00 20 	movb   $0x20,0x605540(%rdx)
  401baf:	83 c0 01             	add    $0x1,%eax
  401bb2:	89 05 8c 45 20 00    	mov    %eax,0x20458c(%rip)        # 606144 <gets_cnt>
  401bb8:	f3 c3                	repz retq 

0000000000401bba <save_term>:
  401bba:	8b 05 84 45 20 00    	mov    0x204584(%rip),%eax        # 606144 <gets_cnt>
  401bc0:	8d 04 40             	lea    (%rax,%rax,2),%eax
  401bc3:	48 98                	cltq   
  401bc5:	c6 80 40 55 60 00 00 	movb   $0x0,0x605540(%rax)
  401bcc:	c3                   	retq   

0000000000401bcd <check_fail>:
  401bcd:	48 83 ec 08          	sub    $0x8,%rsp
  401bd1:	0f be 15 70 45 20 00 	movsbl 0x204570(%rip),%edx        # 606148 <target_prefix>
  401bd8:	41 b8 40 55 60 00    	mov    $0x605540,%r8d
  401bde:	8b 0d 34 39 20 00    	mov    0x203934(%rip),%ecx        # 605518 <check_level>
  401be4:	be 6b 33 40 00       	mov    $0x40336b,%esi
  401be9:	bf 01 00 00 00       	mov    $0x1,%edi
  401bee:	b8 00 00 00 00       	mov    $0x0,%eax
  401bf3:	e8 28 f2 ff ff       	callq  400e20 <__printf_chk@plt>
  401bf8:	bf 01 00 00 00       	mov    $0x1,%edi
  401bfd:	e8 6e f2 ff ff       	callq  400e70 <exit@plt>

0000000000401c02 <Gets>:
  401c02:	41 54                	push   %r12
  401c04:	55                   	push   %rbp
  401c05:	53                   	push   %rbx
  401c06:	49 89 fc             	mov    %rdi,%r12
  401c09:	c7 05 31 45 20 00 00 	movl   $0x0,0x204531(%rip)        # 606144 <gets_cnt>
  401c10:	00 00 00 
  401c13:	48 89 fb             	mov    %rdi,%rbx
  401c16:	eb 11                	jmp    401c29 <Gets+0x27>
  401c18:	48 8d 6b 01          	lea    0x1(%rbx),%rbp
  401c1c:	88 03                	mov    %al,(%rbx)
  401c1e:	0f b6 f8             	movzbl %al,%edi
  401c21:	e8 3c ff ff ff       	callq  401b62 <save_char>
  401c26:	48 89 eb             	mov    %rbp,%rbx
  401c29:	48 8b 3d e0 38 20 00 	mov    0x2038e0(%rip),%rdi        # 605510 <infile>
  401c30:	e8 bb f1 ff ff       	callq  400df0 <_IO_getc@plt>
  401c35:	83 f8 ff             	cmp    $0xffffffff,%eax
  401c38:	74 05                	je     401c3f <Gets+0x3d>
  401c3a:	83 f8 0a             	cmp    $0xa,%eax
  401c3d:	75 d9                	jne    401c18 <Gets+0x16>
  401c3f:	c6 03 00             	movb   $0x0,(%rbx)
  401c42:	b8 00 00 00 00       	mov    $0x0,%eax
  401c47:	e8 6e ff ff ff       	callq  401bba <save_term>
  401c4c:	4c 89 e0             	mov    %r12,%rax
  401c4f:	5b                   	pop    %rbx
  401c50:	5d                   	pop    %rbp
  401c51:	41 5c                	pop    %r12
  401c53:	c3                   	retq   

0000000000401c54 <notify_server>:
  401c54:	53                   	push   %rbx
  401c55:	48 81 ec 10 40 00 00 	sub    $0x4010,%rsp
  401c5c:	64 48 8b 04 25 28 00 	mov    %fs:0x28,%rax
  401c63:	00 00 
  401c65:	48 89 84 24 08 40 00 	mov    %rax,0x4008(%rsp)
  401c6c:	00 
  401c6d:	31 c0                	xor    %eax,%eax
  401c6f:	83 3d b2 38 20 00 00 	cmpl   $0x0,0x2038b2(%rip)        # 605528 <is_checker>
  401c76:	0f 85 aa 01 00 00    	jne    401e26 <notify_server+0x1d2>
  401c7c:	89 fb                	mov    %edi,%ebx
  401c7e:	8b 05 c0 44 20 00    	mov    0x2044c0(%rip),%eax        # 606144 <gets_cnt>
  401c84:	83 c0 64             	add    $0x64,%eax
  401c87:	3d 00 20 00 00       	cmp    $0x2000,%eax
  401c8c:	7e 1e                	jle    401cac <notify_server+0x58>
  401c8e:	be a0 34 40 00       	mov    $0x4034a0,%esi
  401c93:	bf 01 00 00 00       	mov    $0x1,%edi
  401c98:	b8 00 00 00 00       	mov    $0x0,%eax
  401c9d:	e8 7e f1 ff ff       	callq  400e20 <__printf_chk@plt>
  401ca2:	bf 01 00 00 00       	mov    $0x1,%edi
  401ca7:	e8 c4 f1 ff ff       	callq  400e70 <exit@plt>
  401cac:	0f be 05 95 44 20 00 	movsbl 0x204495(%rip),%eax        # 606148 <target_prefix>
  401cb3:	83 3d ee 37 20 00 00 	cmpl   $0x0,0x2037ee(%rip)        # 6054a8 <notify>
  401cba:	74 08                	je     401cc4 <notify_server+0x70>
  401cbc:	8b 15 5e 38 20 00    	mov    0x20385e(%rip),%edx        # 605520 <authkey>
  401cc2:	eb 05                	jmp    401cc9 <notify_server+0x75>
  401cc4:	ba ff ff ff ff       	mov    $0xffffffff,%edx
  401cc9:	85 db                	test   %ebx,%ebx
  401ccb:	74 08                	je     401cd5 <notify_server+0x81>
  401ccd:	41 b9 81 33 40 00    	mov    $0x403381,%r9d
  401cd3:	eb 06                	jmp    401cdb <notify_server+0x87>
  401cd5:	41 b9 86 33 40 00    	mov    $0x403386,%r9d
  401cdb:	68 40 55 60 00       	pushq  $0x605540
  401ce0:	56                   	push   %rsi
  401ce1:	50                   	push   %rax
  401ce2:	52                   	push   %rdx
  401ce3:	44 8b 05 7e 34 20 00 	mov    0x20347e(%rip),%r8d        # 605168 <target_id>
  401cea:	b9 8b 33 40 00       	mov    $0x40338b,%ecx
  401cef:	ba 00 20 00 00       	mov    $0x2000,%edx
  401cf4:	be 01 00 00 00       	mov    $0x1,%esi
  401cf9:	48 8d 7c 24 20       	lea    0x20(%rsp),%rdi
  401cfe:	b8 00 00 00 00       	mov    $0x0,%eax
  401d03:	e8 98 f1 ff ff       	callq  400ea0 <__sprintf_chk@plt>
  401d08:	48 83 c4 20          	add    $0x20,%rsp
  401d0c:	83 3d 95 37 20 00 00 	cmpl   $0x0,0x203795(%rip)        # 6054a8 <notify>
  401d13:	0f 84 81 00 00 00    	je     401d9a <notify_server+0x146>
  401d19:	85 db                	test   %ebx,%ebx
  401d1b:	74 6e                	je     401d8b <notify_server+0x137>
  401d1d:	4c 8d 8c 24 00 20 00 	lea    0x2000(%rsp),%r9
  401d24:	00 
  401d25:	41 b8 00 00 00 00    	mov    $0x0,%r8d
  401d2b:	48 89 e1             	mov    %rsp,%rcx
  401d2e:	48 8b 15 3b 34 20 00 	mov    0x20343b(%rip),%rdx        # 605170 <lab>
  401d35:	48 8b 35 3c 34 20 00 	mov    0x20343c(%rip),%rsi        # 605178 <course>
  401d3c:	48 8b 3d 1d 34 20 00 	mov    0x20341d(%rip),%rdi        # 605160 <user_id>
  401d43:	e8 bb 10 00 00       	callq  402e03 <driver_post>
  401d48:	85 c0                	test   %eax,%eax
  401d4a:	79 26                	jns    401d72 <notify_server+0x11e>
  401d4c:	48 8d 94 24 00 20 00 	lea    0x2000(%rsp),%rdx
  401d53:	00 
  401d54:	be a7 33 40 00       	mov    $0x4033a7,%esi
  401d59:	bf 01 00 00 00       	mov    $0x1,%edi
  401d5e:	b8 00 00 00 00       	mov    $0x0,%eax
  401d63:	e8 b8 f0 ff ff       	callq  400e20 <__printf_chk@plt>
  401d68:	bf 01 00 00 00       	mov    $0x1,%edi
  401d6d:	e8 fe f0 ff ff       	callq  400e70 <exit@plt>
  401d72:	bf d0 34 40 00       	mov    $0x4034d0,%edi
  401d77:	e8 64 ef ff ff       	callq  400ce0 <puts@plt>
  401d7c:	bf b3 33 40 00       	mov    $0x4033b3,%edi
  401d81:	e8 5a ef ff ff       	callq  400ce0 <puts@plt>
  401d86:	e9 9b 00 00 00       	jmpq   401e26 <notify_server+0x1d2>
  401d8b:	bf bd 33 40 00       	mov    $0x4033bd,%edi
  401d90:	e8 4b ef ff ff       	callq  400ce0 <puts@plt>
  401d95:	e9 8c 00 00 00       	jmpq   401e26 <notify_server+0x1d2>
  401d9a:	85 db                	test   %ebx,%ebx
  401d9c:	74 07                	je     401da5 <notify_server+0x151>
  401d9e:	ba 81 33 40 00       	mov    $0x403381,%edx
  401da3:	eb 05                	jmp    401daa <notify_server+0x156>
  401da5:	ba 86 33 40 00       	mov    $0x403386,%edx
  401daa:	be 08 35 40 00       	mov    $0x403508,%esi
  401daf:	bf 01 00 00 00       	mov    $0x1,%edi
  401db4:	b8 00 00 00 00       	mov    $0x0,%eax
  401db9:	e8 62 f0 ff ff       	callq  400e20 <__printf_chk@plt>
  401dbe:	48 8b 15 9b 33 20 00 	mov    0x20339b(%rip),%rdx        # 605160 <user_id>
  401dc5:	be c4 33 40 00       	mov    $0x4033c4,%esi
  401dca:	bf 01 00 00 00       	mov    $0x1,%edi
  401dcf:	b8 00 00 00 00       	mov    $0x0,%eax
  401dd4:	e8 47 f0 ff ff       	callq  400e20 <__printf_chk@plt>
  401dd9:	48 8b 15 98 33 20 00 	mov    0x203398(%rip),%rdx        # 605178 <course>
  401de0:	be d1 33 40 00       	mov    $0x4033d1,%esi
  401de5:	bf 01 00 00 00       	mov    $0x1,%edi
  401dea:	b8 00 00 00 00       	mov    $0x0,%eax
  401def:	e8 2c f0 ff ff       	callq  400e20 <__printf_chk@plt>
  401df4:	48 8b 15 75 33 20 00 	mov    0x203375(%rip),%rdx        # 605170 <lab>
  401dfb:	be dd 33 40 00       	mov    $0x4033dd,%esi
  401e00:	bf 01 00 00 00       	mov    $0x1,%edi
  401e05:	b8 00 00 00 00       	mov    $0x0,%eax
  401e0a:	e8 11 f0 ff ff       	callq  400e20 <__printf_chk@plt>
  401e0f:	48 89 e2             	mov    %rsp,%rdx
  401e12:	be e6 33 40 00       	mov    $0x4033e6,%esi
  401e17:	bf 01 00 00 00       	mov    $0x1,%edi
  401e1c:	b8 00 00 00 00       	mov    $0x0,%eax
  401e21:	e8 fa ef ff ff       	callq  400e20 <__printf_chk@plt>
  401e26:	48 8b 84 24 08 40 00 	mov    0x4008(%rsp),%rax
  401e2d:	00 
  401e2e:	64 48 33 04 25 28 00 	xor    %fs:0x28,%rax
  401e35:	00 00 
  401e37:	74 05                	je     401e3e <notify_server+0x1ea>
  401e39:	e8 c2 ee ff ff       	callq  400d00 <__stack_chk_fail@plt>
  401e3e:	48 81 c4 10 40 00 00 	add    $0x4010,%rsp
  401e45:	5b                   	pop    %rbx
  401e46:	c3                   	retq   

0000000000401e47 <validate>:
  401e47:	53                   	push   %rbx
  401e48:	89 fb                	mov    %edi,%ebx
  401e4a:	83 3d d7 36 20 00 00 	cmpl   $0x0,0x2036d7(%rip)        # 605528 <is_checker>
  401e51:	74 6b                	je     401ebe <validate+0x77>
  401e53:	39 3d c3 36 20 00    	cmp    %edi,0x2036c3(%rip)        # 60551c <vlevel>
  401e59:	74 14                	je     401e6f <validate+0x28>
  401e5b:	bf f2 33 40 00       	mov    $0x4033f2,%edi
  401e60:	e8 7b ee ff ff       	callq  400ce0 <puts@plt>
  401e65:	b8 00 00 00 00       	mov    $0x0,%eax
  401e6a:	e8 5e fd ff ff       	callq  401bcd <check_fail>
  401e6f:	8b 15 a3 36 20 00    	mov    0x2036a3(%rip),%edx        # 605518 <check_level>
  401e75:	39 d7                	cmp    %edx,%edi
  401e77:	74 20                	je     401e99 <validate+0x52>
  401e79:	89 f9                	mov    %edi,%ecx
  401e7b:	be 30 35 40 00       	mov    $0x403530,%esi
  401e80:	bf 01 00 00 00       	mov    $0x1,%edi
  401e85:	b8 00 00 00 00       	mov    $0x0,%eax
  401e8a:	e8 91 ef ff ff       	callq  400e20 <__printf_chk@plt>
  401e8f:	b8 00 00 00 00       	mov    $0x0,%eax
  401e94:	e8 34 fd ff ff       	callq  401bcd <check_fail>
  401e99:	0f be 15 a8 42 20 00 	movsbl 0x2042a8(%rip),%edx        # 606148 <target_prefix>
  401ea0:	41 b8 40 55 60 00    	mov    $0x605540,%r8d
  401ea6:	89 f9                	mov    %edi,%ecx
  401ea8:	be 10 34 40 00       	mov    $0x403410,%esi
  401ead:	bf 01 00 00 00       	mov    $0x1,%edi
  401eb2:	b8 00 00 00 00       	mov    $0x0,%eax
  401eb7:	e8 64 ef ff ff       	callq  400e20 <__printf_chk@plt>
  401ebc:	eb 49                	jmp    401f07 <validate+0xc0>
  401ebe:	3b 3d 58 36 20 00    	cmp    0x203658(%rip),%edi        # 60551c <vlevel>
  401ec4:	74 18                	je     401ede <validate+0x97>
  401ec6:	bf f2 33 40 00       	mov    $0x4033f2,%edi
  401ecb:	e8 10 ee ff ff       	callq  400ce0 <puts@plt>
  401ed0:	89 de                	mov    %ebx,%esi
  401ed2:	bf 00 00 00 00       	mov    $0x0,%edi
  401ed7:	e8 78 fd ff ff       	callq  401c54 <notify_server>
  401edc:	eb 29                	jmp    401f07 <validate+0xc0>
  401ede:	0f be 0d 63 42 20 00 	movsbl 0x204263(%rip),%ecx        # 606148 <target_prefix>
  401ee5:	89 fa                	mov    %edi,%edx
  401ee7:	be 58 35 40 00       	mov    $0x403558,%esi
  401eec:	bf 01 00 00 00       	mov    $0x1,%edi
  401ef1:	b8 00 00 00 00       	mov    $0x0,%eax
  401ef6:	e8 25 ef ff ff       	callq  400e20 <__printf_chk@plt>
  401efb:	89 de                	mov    %ebx,%esi
  401efd:	bf 01 00 00 00       	mov    $0x1,%edi
  401f02:	e8 4d fd ff ff       	callq  401c54 <notify_server>
  401f07:	5b                   	pop    %rbx
  401f08:	c3                   	retq   

0000000000401f09 <fail>:
  401f09:	48 83 ec 08          	sub    $0x8,%rsp
  401f0d:	83 3d 14 36 20 00 00 	cmpl   $0x0,0x203614(%rip)        # 605528 <is_checker>
  401f14:	74 0a                	je     401f20 <fail+0x17>
  401f16:	b8 00 00 00 00       	mov    $0x0,%eax
  401f1b:	e8 ad fc ff ff       	callq  401bcd <check_fail>
  401f20:	89 fe                	mov    %edi,%esi
  401f22:	bf 00 00 00 00       	mov    $0x0,%edi
  401f27:	e8 28 fd ff ff       	callq  401c54 <notify_server>
  401f2c:	48 83 c4 08          	add    $0x8,%rsp
  401f30:	c3                   	retq   

0000000000401f31 <bushandler>:
  401f31:	48 83 ec 08          	sub    $0x8,%rsp
  401f35:	83 3d ec 35 20 00 00 	cmpl   $0x0,0x2035ec(%rip)        # 605528 <is_checker>
  401f3c:	74 14                	je     401f52 <bushandler+0x21>
  401f3e:	bf 25 34 40 00       	mov    $0x403425,%edi
  401f43:	e8 98 ed ff ff       	callq  400ce0 <puts@plt>
  401f48:	b8 00 00 00 00       	mov    $0x0,%eax
  401f4d:	e8 7b fc ff ff       	callq  401bcd <check_fail>
  401f52:	bf 90 35 40 00       	mov    $0x403590,%edi
  401f57:	e8 84 ed ff ff       	callq  400ce0 <puts@plt>
  401f5c:	bf 2f 34 40 00       	mov    $0x40342f,%edi
  401f61:	e8 7a ed ff ff       	callq  400ce0 <puts@plt>
  401f66:	be 00 00 00 00       	mov    $0x0,%esi
  401f6b:	bf 00 00 00 00       	mov    $0x0,%edi
  401f70:	e8 df fc ff ff       	callq  401c54 <notify_server>
  401f75:	bf 01 00 00 00       	mov    $0x1,%edi
  401f7a:	e8 f1 ee ff ff       	callq  400e70 <exit@plt>

0000000000401f7f <seghandler>:
  401f7f:	48 83 ec 08          	sub    $0x8,%rsp
  401f83:	83 3d 9e 35 20 00 00 	cmpl   $0x0,0x20359e(%rip)        # 605528 <is_checker>
  401f8a:	74 14                	je     401fa0 <seghandler+0x21>
  401f8c:	bf 45 34 40 00       	mov    $0x403445,%edi
  401f91:	e8 4a ed ff ff       	callq  400ce0 <puts@plt>
  401f96:	b8 00 00 00 00       	mov    $0x0,%eax
  401f9b:	e8 2d fc ff ff       	callq  401bcd <check_fail>
  401fa0:	bf b0 35 40 00       	mov    $0x4035b0,%edi
  401fa5:	e8 36 ed ff ff       	callq  400ce0 <puts@plt>
  401faa:	bf 2f 34 40 00       	mov    $0x40342f,%edi
  401faf:	e8 2c ed ff ff       	callq  400ce0 <puts@plt>
  401fb4:	be 00 00 00 00       	mov    $0x0,%esi
  401fb9:	bf 00 00 00 00       	mov    $0x0,%edi
  401fbe:	e8 91 fc ff ff       	callq  401c54 <notify_server>
  401fc3:	bf 01 00 00 00       	mov    $0x1,%edi
  401fc8:	e8 a3 ee ff ff       	callq  400e70 <exit@plt>

0000000000401fcd <illegalhandler>:
  401fcd:	48 83 ec 08          	sub    $0x8,%rsp
  401fd1:	83 3d 50 35 20 00 00 	cmpl   $0x0,0x203550(%rip)        # 605528 <is_checker>
  401fd8:	74 14                	je     401fee <illegalhandler+0x21>
  401fda:	bf 58 34 40 00       	mov    $0x403458,%edi
  401fdf:	e8 fc ec ff ff       	callq  400ce0 <puts@plt>
  401fe4:	b8 00 00 00 00       	mov    $0x0,%eax
  401fe9:	e8 df fb ff ff       	callq  401bcd <check_fail>
  401fee:	bf d8 35 40 00       	mov    $0x4035d8,%edi
  401ff3:	e8 e8 ec ff ff       	callq  400ce0 <puts@plt>
  401ff8:	bf 2f 34 40 00       	mov    $0x40342f,%edi
  401ffd:	e8 de ec ff ff       	callq  400ce0 <puts@plt>
  402002:	be 00 00 00 00       	mov    $0x0,%esi
  402007:	bf 00 00 00 00       	mov    $0x0,%edi
  40200c:	e8 43 fc ff ff       	callq  401c54 <notify_server>
  402011:	bf 01 00 00 00       	mov    $0x1,%edi
  402016:	e8 55 ee ff ff       	callq  400e70 <exit@plt>

000000000040201b <sigalrmhandler>:
  40201b:	48 83 ec 08          	sub    $0x8,%rsp
  40201f:	83 3d 02 35 20 00 00 	cmpl   $0x0,0x203502(%rip)        # 605528 <is_checker>
  402026:	74 14                	je     40203c <sigalrmhandler+0x21>
  402028:	bf 6c 34 40 00       	mov    $0x40346c,%edi
  40202d:	e8 ae ec ff ff       	callq  400ce0 <puts@plt>
  402032:	b8 00 00 00 00       	mov    $0x0,%eax
  402037:	e8 91 fb ff ff       	callq  401bcd <check_fail>
  40203c:	ba 05 00 00 00       	mov    $0x5,%edx
  402041:	be 08 36 40 00       	mov    $0x403608,%esi
  402046:	bf 01 00 00 00       	mov    $0x1,%edi
  40204b:	b8 00 00 00 00       	mov    $0x0,%eax
  402050:	e8 cb ed ff ff       	callq  400e20 <__printf_chk@plt>
  402055:	be 00 00 00 00       	mov    $0x0,%esi
  40205a:	bf 00 00 00 00       	mov    $0x0,%edi
  40205f:	e8 f0 fb ff ff       	callq  401c54 <notify_server>
  402064:	bf 01 00 00 00       	mov    $0x1,%edi
  402069:	e8 02 ee ff ff       	callq  400e70 <exit@plt>

000000000040206e <launch>:
  40206e:	55                   	push   %rbp
  40206f:	48 89 e5             	mov    %rsp,%rbp
  402072:	48 83 ec 10          	sub    $0x10,%rsp
  402076:	48 89 fa             	mov    %rdi,%rdx
  402079:	64 48 8b 04 25 28 00 	mov    %fs:0x28,%rax
  402080:	00 00 
  402082:	48 89 45 f8          	mov    %rax,-0x8(%rbp)
  402086:	31 c0                	xor    %eax,%eax
  402088:	48 8d 47 1e          	lea    0x1e(%rdi),%rax
  40208c:	48 83 e0 f0          	and    $0xfffffffffffffff0,%rax
  402090:	48 29 c4             	sub    %rax,%rsp
  402093:	48 8d 7c 24 0f       	lea    0xf(%rsp),%rdi
  402098:	48 83 e7 f0          	and    $0xfffffffffffffff0,%rdi
  40209c:	be f4 00 00 00       	mov    $0xf4,%esi
  4020a1:	e8 7a ec ff ff       	callq  400d20 <memset@plt>
  4020a6:	48 8b 05 13 34 20 00 	mov    0x203413(%rip),%rax        # 6054c0 <stdin@@GLIBC_2.2.5>
  4020ad:	48 39 05 5c 34 20 00 	cmp    %rax,0x20345c(%rip)        # 605510 <infile>
  4020b4:	75 14                	jne    4020ca <launch+0x5c>
  4020b6:	be 74 34 40 00       	mov    $0x403474,%esi
  4020bb:	bf 01 00 00 00       	mov    $0x1,%edi
  4020c0:	b8 00 00 00 00       	mov    $0x0,%eax
  4020c5:	e8 56 ed ff ff       	callq  400e20 <__printf_chk@plt>
  4020ca:	c7 05 48 34 20 00 00 	movl   $0x0,0x203448(%rip)        # 60551c <vlevel>
  4020d1:	00 00 00 
  4020d4:	b8 00 00 00 00       	mov    $0x0,%eax
  4020d9:	e8 39 f9 ff ff       	callq  401a17 <test>
  4020de:	83 3d 43 34 20 00 00 	cmpl   $0x0,0x203443(%rip)        # 605528 <is_checker>
  4020e5:	74 14                	je     4020fb <launch+0x8d>
  4020e7:	bf 81 34 40 00       	mov    $0x403481,%edi
  4020ec:	e8 ef eb ff ff       	callq  400ce0 <puts@plt>
  4020f1:	b8 00 00 00 00       	mov    $0x0,%eax
  4020f6:	e8 d2 fa ff ff       	callq  401bcd <check_fail>
  4020fb:	bf 8c 34 40 00       	mov    $0x40348c,%edi
  402100:	e8 db eb ff ff       	callq  400ce0 <puts@plt>
  402105:	48 8b 45 f8          	mov    -0x8(%rbp),%rax
  402109:	64 48 33 04 25 28 00 	xor    %fs:0x28,%rax
  402110:	00 00 
  402112:	74 05                	je     402119 <launch+0xab>
  402114:	e8 e7 eb ff ff       	callq  400d00 <__stack_chk_fail@plt>
  402119:	c9                   	leaveq 
  40211a:	c3                   	retq   

000000000040211b <stable_launch>:
  40211b:	53                   	push   %rbx
  40211c:	48 89 3d e5 33 20 00 	mov    %rdi,0x2033e5(%rip)        # 605508 <global_offset>
  402123:	41 b9 00 00 00 00    	mov    $0x0,%r9d
  402129:	41 b8 00 00 00 00    	mov    $0x0,%r8d
  40212f:	b9 32 01 00 00       	mov    $0x132,%ecx
  402134:	ba 07 00 00 00       	mov    $0x7,%edx
  402139:	be 00 00 10 00       	mov    $0x100000,%esi
  40213e:	bf 00 60 58 55       	mov    $0x55586000,%edi
  402143:	e8 c8 eb ff ff       	callq  400d10 <mmap@plt>
  402148:	48 89 c3             	mov    %rax,%rbx
  40214b:	48 3d 00 60 58 55    	cmp    $0x55586000,%rax
  402151:	74 37                	je     40218a <stable_launch+0x6f>
  402153:	be 00 00 10 00       	mov    $0x100000,%esi
  402158:	48 89 c7             	mov    %rax,%rdi
  40215b:	e8 b0 ec ff ff       	callq  400e10 <munmap@plt>
  402160:	b9 00 60 58 55       	mov    $0x55586000,%ecx
  402165:	ba 40 36 40 00       	mov    $0x403640,%edx
  40216a:	be 01 00 00 00       	mov    $0x1,%esi
  40216f:	48 8b 3d 72 33 20 00 	mov    0x203372(%rip),%rdi        # 6054e8 <stderr@@GLIBC_2.2.5>
  402176:	b8 00 00 00 00       	mov    $0x0,%eax
  40217b:	e8 10 ed ff ff       	callq  400e90 <__fprintf_chk@plt>
  402180:	bf 01 00 00 00       	mov    $0x1,%edi
  402185:	e8 e6 ec ff ff       	callq  400e70 <exit@plt>
  40218a:	48 8d 90 f8 ff 0f 00 	lea    0xffff8(%rax),%rdx
  402191:	48 89 15 b8 3f 20 00 	mov    %rdx,0x203fb8(%rip)        # 606150 <stack_top>
  402198:	48 89 e0             	mov    %rsp,%rax
  40219b:	48 89 d4             	mov    %rdx,%rsp
  40219e:	48 89 c2             	mov    %rax,%rdx
  4021a1:	48 89 15 58 33 20 00 	mov    %rdx,0x203358(%rip)        # 605500 <global_save_stack>
  4021a8:	48 8b 3d 59 33 20 00 	mov    0x203359(%rip),%rdi        # 605508 <global_offset>
  4021af:	e8 ba fe ff ff       	callq  40206e <launch>
  4021b4:	48 8b 05 45 33 20 00 	mov    0x203345(%rip),%rax        # 605500 <global_save_stack>
  4021bb:	48 89 c4             	mov    %rax,%rsp
  4021be:	be 00 00 10 00       	mov    $0x100000,%esi
  4021c3:	48 89 df             	mov    %rbx,%rdi
  4021c6:	e8 45 ec ff ff       	callq  400e10 <munmap@plt>
  4021cb:	5b                   	pop    %rbx
  4021cc:	c3                   	retq   

00000000004021cd <rio_readinitb>:
  4021cd:	89 37                	mov    %esi,(%rdi)
  4021cf:	c7 47 04 00 00 00 00 	movl   $0x0,0x4(%rdi)
  4021d6:	48 8d 47 10          	lea    0x10(%rdi),%rax
  4021da:	48 89 47 08          	mov    %rax,0x8(%rdi)
  4021de:	c3                   	retq   

00000000004021df <sigalrm_handler>:
  4021df:	48 83 ec 08          	sub    $0x8,%rsp
  4021e3:	b9 00 00 00 00       	mov    $0x0,%ecx
  4021e8:	ba 80 36 40 00       	mov    $0x403680,%edx
  4021ed:	be 01 00 00 00       	mov    $0x1,%esi
  4021f2:	48 8b 3d ef 32 20 00 	mov    0x2032ef(%rip),%rdi        # 6054e8 <stderr@@GLIBC_2.2.5>
  4021f9:	b8 00 00 00 00       	mov    $0x0,%eax
  4021fe:	e8 8d ec ff ff       	callq  400e90 <__fprintf_chk@plt>
  402203:	bf 01 00 00 00       	mov    $0x1,%edi
  402208:	e8 63 ec ff ff       	callq  400e70 <exit@plt>

000000000040220d <rio_writen>:
  40220d:	41 55                	push   %r13
  40220f:	41 54                	push   %r12
  402211:	55                   	push   %rbp
  402212:	53                   	push   %rbx
  402213:	48 83 ec 08          	sub    $0x8,%rsp
  402217:	41 89 fc             	mov    %edi,%r12d
  40221a:	48 89 f5             	mov    %rsi,%rbp
  40221d:	49 89 d5             	mov    %rdx,%r13
  402220:	48 89 d3             	mov    %rdx,%rbx
  402223:	eb 28                	jmp    40224d <rio_writen+0x40>
  402225:	48 89 da             	mov    %rbx,%rdx
  402228:	48 89 ee             	mov    %rbp,%rsi
  40222b:	44 89 e7             	mov    %r12d,%edi
  40222e:	e8 bd ea ff ff       	callq  400cf0 <write@plt>
  402233:	48 85 c0             	test   %rax,%rax
  402236:	7f 0f                	jg     402247 <rio_writen+0x3a>
  402238:	e8 63 ea ff ff       	callq  400ca0 <__errno_location@plt>
  40223d:	83 38 04             	cmpl   $0x4,(%rax)
  402240:	75 15                	jne    402257 <rio_writen+0x4a>
  402242:	b8 00 00 00 00       	mov    $0x0,%eax
  402247:	48 29 c3             	sub    %rax,%rbx
  40224a:	48 01 c5             	add    %rax,%rbp
  40224d:	48 85 db             	test   %rbx,%rbx
  402250:	75 d3                	jne    402225 <rio_writen+0x18>
  402252:	4c 89 e8             	mov    %r13,%rax
  402255:	eb 07                	jmp    40225e <rio_writen+0x51>
  402257:	48 c7 c0 ff ff ff ff 	mov    $0xffffffffffffffff,%rax
  40225e:	48 83 c4 08          	add    $0x8,%rsp
  402262:	5b                   	pop    %rbx
  402263:	5d                   	pop    %rbp
  402264:	41 5c                	pop    %r12
  402266:	41 5d                	pop    %r13
  402268:	c3                   	retq   

0000000000402269 <rio_read>:
  402269:	41 55                	push   %r13
  40226b:	41 54                	push   %r12
  40226d:	55                   	push   %rbp
  40226e:	53                   	push   %rbx
  40226f:	48 83 ec 08          	sub    $0x8,%rsp
  402273:	48 89 fb             	mov    %rdi,%rbx
  402276:	49 89 f5             	mov    %rsi,%r13
  402279:	49 89 d4             	mov    %rdx,%r12
  40227c:	eb 2e                	jmp    4022ac <rio_read+0x43>
  40227e:	48 8d 6b 10          	lea    0x10(%rbx),%rbp
  402282:	8b 3b                	mov    (%rbx),%edi
  402284:	ba 00 20 00 00       	mov    $0x2000,%edx
  402289:	48 89 ee             	mov    %rbp,%rsi
  40228c:	e8 bf ea ff ff       	callq  400d50 <read@plt>
  402291:	89 43 04             	mov    %eax,0x4(%rbx)
  402294:	85 c0                	test   %eax,%eax
  402296:	79 0c                	jns    4022a4 <rio_read+0x3b>
  402298:	e8 03 ea ff ff       	callq  400ca0 <__errno_location@plt>
  40229d:	83 38 04             	cmpl   $0x4,(%rax)
  4022a0:	74 0a                	je     4022ac <rio_read+0x43>
  4022a2:	eb 37                	jmp    4022db <rio_read+0x72>
  4022a4:	85 c0                	test   %eax,%eax
  4022a6:	74 3c                	je     4022e4 <rio_read+0x7b>
  4022a8:	48 89 6b 08          	mov    %rbp,0x8(%rbx)
  4022ac:	8b 6b 04             	mov    0x4(%rbx),%ebp
  4022af:	85 ed                	test   %ebp,%ebp
  4022b1:	7e cb                	jle    40227e <rio_read+0x15>
  4022b3:	89 e8                	mov    %ebp,%eax
  4022b5:	49 39 c4             	cmp    %rax,%r12
  4022b8:	77 03                	ja     4022bd <rio_read+0x54>
  4022ba:	44 89 e5             	mov    %r12d,%ebp
  4022bd:	4c 63 e5             	movslq %ebp,%r12
  4022c0:	48 8b 73 08          	mov    0x8(%rbx),%rsi
  4022c4:	4c 89 e2             	mov    %r12,%rdx
  4022c7:	4c 89 ef             	mov    %r13,%rdi
  4022ca:	e8 f1 ea ff ff       	callq  400dc0 <memcpy@plt>
  4022cf:	4c 01 63 08          	add    %r12,0x8(%rbx)
  4022d3:	29 6b 04             	sub    %ebp,0x4(%rbx)
  4022d6:	4c 89 e0             	mov    %r12,%rax
  4022d9:	eb 0e                	jmp    4022e9 <rio_read+0x80>
  4022db:	48 c7 c0 ff ff ff ff 	mov    $0xffffffffffffffff,%rax
  4022e2:	eb 05                	jmp    4022e9 <rio_read+0x80>
  4022e4:	b8 00 00 00 00       	mov    $0x0,%eax
  4022e9:	48 83 c4 08          	add    $0x8,%rsp
  4022ed:	5b                   	pop    %rbx
  4022ee:	5d                   	pop    %rbp
  4022ef:	41 5c                	pop    %r12
  4022f1:	41 5d                	pop    %r13
  4022f3:	c3                   	retq   

00000000004022f4 <rio_readlineb>:
  4022f4:	41 55                	push   %r13
  4022f6:	41 54                	push   %r12
  4022f8:	55                   	push   %rbp
  4022f9:	53                   	push   %rbx
  4022fa:	48 83 ec 18          	sub    $0x18,%rsp
  4022fe:	49 89 fd             	mov    %rdi,%r13
  402301:	48 89 f5             	mov    %rsi,%rbp
  402304:	49 89 d4             	mov    %rdx,%r12
  402307:	bb 01 00 00 00       	mov    $0x1,%ebx
  40230c:	eb 3f                	jmp    40234d <rio_readlineb+0x59>
  40230e:	ba 01 00 00 00       	mov    $0x1,%edx
  402313:	48 8d 74 24 0f       	lea    0xf(%rsp),%rsi
  402318:	4c 89 ef             	mov    %r13,%rdi
  40231b:	e8 49 ff ff ff       	callq  402269 <rio_read>
  402320:	83 f8 01             	cmp    $0x1,%eax
  402323:	75 15                	jne    40233a <rio_readlineb+0x46>
  402325:	48 8d 45 01          	lea    0x1(%rbp),%rax
  402329:	0f b6 54 24 0f       	movzbl 0xf(%rsp),%edx
  40232e:	88 55 00             	mov    %dl,0x0(%rbp)
  402331:	80 7c 24 0f 0a       	cmpb   $0xa,0xf(%rsp)
  402336:	75 0e                	jne    402346 <rio_readlineb+0x52>
  402338:	eb 1a                	jmp    402354 <rio_readlineb+0x60>
  40233a:	85 c0                	test   %eax,%eax
  40233c:	75 22                	jne    402360 <rio_readlineb+0x6c>
  40233e:	48 83 fb 01          	cmp    $0x1,%rbx
  402342:	75 13                	jne    402357 <rio_readlineb+0x63>
  402344:	eb 23                	jmp    402369 <rio_readlineb+0x75>
  402346:	48 83 c3 01          	add    $0x1,%rbx
  40234a:	48 89 c5             	mov    %rax,%rbp
  40234d:	4c 39 e3             	cmp    %r12,%rbx
  402350:	72 bc                	jb     40230e <rio_readlineb+0x1a>
  402352:	eb 03                	jmp    402357 <rio_readlineb+0x63>
  402354:	48 89 c5             	mov    %rax,%rbp
  402357:	c6 45 00 00          	movb   $0x0,0x0(%rbp)
  40235b:	48 89 d8             	mov    %rbx,%rax
  40235e:	eb 0e                	jmp    40236e <rio_readlineb+0x7a>
  402360:	48 c7 c0 ff ff ff ff 	mov    $0xffffffffffffffff,%rax
  402367:	eb 05                	jmp    40236e <rio_readlineb+0x7a>
  402369:	b8 00 00 00 00       	mov    $0x0,%eax
  40236e:	48 83 c4 18          	add    $0x18,%rsp
  402372:	5b                   	pop    %rbx
  402373:	5d                   	pop    %rbp
  402374:	41 5c                	pop    %r12
  402376:	41 5d                	pop    %r13
  402378:	c3                   	retq   

0000000000402379 <urlencode>:
  402379:	41 54                	push   %r12
  40237b:	55                   	push   %rbp
  40237c:	53                   	push   %rbx
  40237d:	48 83 ec 10          	sub    $0x10,%rsp
  402381:	48 89 fb             	mov    %rdi,%rbx
  402384:	48 89 f5             	mov    %rsi,%rbp
  402387:	64 48 8b 04 25 28 00 	mov    %fs:0x28,%rax
  40238e:	00 00 
  402390:	48 89 44 24 08       	mov    %rax,0x8(%rsp)
  402395:	31 c0                	xor    %eax,%eax
  402397:	48 c7 c1 ff ff ff ff 	mov    $0xffffffffffffffff,%rcx
  40239e:	f2 ae                	repnz scas %es:(%rdi),%al
  4023a0:	48 f7 d1             	not    %rcx
  4023a3:	8d 41 ff             	lea    -0x1(%rcx),%eax
  4023a6:	e9 aa 00 00 00       	jmpq   402455 <urlencode+0xdc>
  4023ab:	44 0f b6 03          	movzbl (%rbx),%r8d
  4023af:	41 80 f8 2a          	cmp    $0x2a,%r8b
  4023b3:	0f 94 c2             	sete   %dl
  4023b6:	41 80 f8 2d          	cmp    $0x2d,%r8b
  4023ba:	0f 94 c0             	sete   %al
  4023bd:	08 c2                	or     %al,%dl
  4023bf:	75 24                	jne    4023e5 <urlencode+0x6c>
  4023c1:	41 80 f8 2e          	cmp    $0x2e,%r8b
  4023c5:	74 1e                	je     4023e5 <urlencode+0x6c>
  4023c7:	41 80 f8 5f          	cmp    $0x5f,%r8b
  4023cb:	74 18                	je     4023e5 <urlencode+0x6c>
  4023cd:	41 8d 40 d0          	lea    -0x30(%r8),%eax
  4023d1:	3c 09                	cmp    $0x9,%al
  4023d3:	76 10                	jbe    4023e5 <urlencode+0x6c>
  4023d5:	41 8d 40 bf          	lea    -0x41(%r8),%eax
  4023d9:	3c 19                	cmp    $0x19,%al
  4023db:	76 08                	jbe    4023e5 <urlencode+0x6c>
  4023dd:	41 8d 40 9f          	lea    -0x61(%r8),%eax
  4023e1:	3c 19                	cmp    $0x19,%al
  4023e3:	77 0a                	ja     4023ef <urlencode+0x76>
  4023e5:	44 88 45 00          	mov    %r8b,0x0(%rbp)
  4023e9:	48 8d 6d 01          	lea    0x1(%rbp),%rbp
  4023ed:	eb 5f                	jmp    40244e <urlencode+0xd5>
  4023ef:	41 80 f8 20          	cmp    $0x20,%r8b
  4023f3:	75 0a                	jne    4023ff <urlencode+0x86>
  4023f5:	c6 45 00 2b          	movb   $0x2b,0x0(%rbp)
  4023f9:	48 8d 6d 01          	lea    0x1(%rbp),%rbp
  4023fd:	eb 4f                	jmp    40244e <urlencode+0xd5>
  4023ff:	41 8d 40 e0          	lea    -0x20(%r8),%eax
  402403:	3c 5f                	cmp    $0x5f,%al
  402405:	0f 96 c2             	setbe  %dl
  402408:	41 80 f8 09          	cmp    $0x9,%r8b
  40240c:	0f 94 c0             	sete   %al
  40240f:	08 c2                	or     %al,%dl
  402411:	74 50                	je     402463 <urlencode+0xea>
  402413:	45 0f b6 c0          	movzbl %r8b,%r8d
  402417:	b9 18 37 40 00       	mov    $0x403718,%ecx
  40241c:	ba 08 00 00 00       	mov    $0x8,%edx
  402421:	be 01 00 00 00       	mov    $0x1,%esi
  402426:	48 89 e7             	mov    %rsp,%rdi
  402429:	b8 00 00 00 00       	mov    $0x0,%eax
  40242e:	e8 6d ea ff ff       	callq  400ea0 <__sprintf_chk@plt>
  402433:	0f b6 04 24          	movzbl (%rsp),%eax
  402437:	88 45 00             	mov    %al,0x0(%rbp)
  40243a:	0f b6 44 24 01       	movzbl 0x1(%rsp),%eax
  40243f:	88 45 01             	mov    %al,0x1(%rbp)
  402442:	0f b6 44 24 02       	movzbl 0x2(%rsp),%eax
  402447:	88 45 02             	mov    %al,0x2(%rbp)
  40244a:	48 8d 6d 03          	lea    0x3(%rbp),%rbp
  40244e:	48 83 c3 01          	add    $0x1,%rbx
  402452:	44 89 e0             	mov    %r12d,%eax
  402455:	44 8d 60 ff          	lea    -0x1(%rax),%r12d
  402459:	85 c0                	test   %eax,%eax
  40245b:	0f 85 4a ff ff ff    	jne    4023ab <urlencode+0x32>
  402461:	eb 05                	jmp    402468 <urlencode+0xef>
  402463:	b8 ff ff ff ff       	mov    $0xffffffff,%eax
  402468:	48 8b 74 24 08       	mov    0x8(%rsp),%rsi
  40246d:	64 48 33 34 25 28 00 	xor    %fs:0x28,%rsi
  402474:	00 00 
  402476:	74 05                	je     40247d <urlencode+0x104>
  402478:	e8 83 e8 ff ff       	callq  400d00 <__stack_chk_fail@plt>
  40247d:	48 83 c4 10          	add    $0x10,%rsp
  402481:	5b                   	pop    %rbx
  402482:	5d                   	pop    %rbp
  402483:	41 5c                	pop    %r12
  402485:	c3                   	retq   

0000000000402486 <submitr>:
  402486:	41 57                	push   %r15
  402488:	41 56                	push   %r14
  40248a:	41 55                	push   %r13
  40248c:	41 54                	push   %r12
  40248e:	55                   	push   %rbp
  40248f:	53                   	push   %rbx
  402490:	48 81 ec 58 a0 00 00 	sub    $0xa058,%rsp
  402497:	49 89 fc             	mov    %rdi,%r12
  40249a:	89 74 24 04          	mov    %esi,0x4(%rsp)
  40249e:	49 89 d7             	mov    %rdx,%r15
  4024a1:	49 89 ce             	mov    %rcx,%r14
  4024a4:	4c 89 44 24 08       	mov    %r8,0x8(%rsp)
  4024a9:	4d 89 cd             	mov    %r9,%r13
  4024ac:	48 8b 9c 24 90 a0 00 	mov    0xa090(%rsp),%rbx
  4024b3:	00 
  4024b4:	64 48 8b 04 25 28 00 	mov    %fs:0x28,%rax
  4024bb:	00 00 
  4024bd:	48 89 84 24 48 a0 00 	mov    %rax,0xa048(%rsp)
  4024c4:	00 
  4024c5:	31 c0                	xor    %eax,%eax
  4024c7:	c7 44 24 1c 00 00 00 	movl   $0x0,0x1c(%rsp)
  4024ce:	00 
  4024cf:	ba 00 00 00 00       	mov    $0x0,%edx
  4024d4:	be 01 00 00 00       	mov    $0x1,%esi
  4024d9:	bf 02 00 00 00       	mov    $0x2,%edi
  4024de:	e8 cd e9 ff ff       	callq  400eb0 <socket@plt>
  4024e3:	85 c0                	test   %eax,%eax
  4024e5:	79 4e                	jns    402535 <submitr+0xaf>
  4024e7:	48 b8 45 72 72 6f 72 	movabs $0x43203a726f727245,%rax
  4024ee:	3a 20 43 
  4024f1:	48 89 03             	mov    %rax,(%rbx)
  4024f4:	48 b8 6c 69 65 6e 74 	movabs $0x6e7520746e65696c,%rax
  4024fb:	20 75 6e 
  4024fe:	48 89 43 08          	mov    %rax,0x8(%rbx)
  402502:	48 b8 61 62 6c 65 20 	movabs $0x206f7420656c6261,%rax
  402509:	74 6f 20 
  40250c:	48 89 43 10          	mov    %rax,0x10(%rbx)
  402510:	48 b8 63 72 65 61 74 	movabs $0x7320657461657263,%rax
  402517:	65 20 73 
  40251a:	48 89 43 18          	mov    %rax,0x18(%rbx)
  40251e:	c7 43 20 6f 63 6b 65 	movl   $0x656b636f,0x20(%rbx)
  402525:	66 c7 43 24 74 00    	movw   $0x74,0x24(%rbx)
  40252b:	b8 ff ff ff ff       	mov    $0xffffffff,%eax
  402530:	e9 88 06 00 00       	jmpq   402bbd <submitr+0x737>
  402535:	89 c5                	mov    %eax,%ebp
  402537:	4c 89 e7             	mov    %r12,%rdi
  40253a:	e8 41 e8 ff ff       	callq  400d80 <gethostbyname@plt>
  40253f:	48 85 c0             	test   %rax,%rax
  402542:	75 67                	jne    4025ab <submitr+0x125>
  402544:	48 b8 45 72 72 6f 72 	movabs $0x44203a726f727245,%rax
  40254b:	3a 20 44 
  40254e:	48 89 03             	mov    %rax,(%rbx)
  402551:	48 b8 4e 53 20 69 73 	movabs $0x6e7520736920534e,%rax
  402558:	20 75 6e 
  40255b:	48 89 43 08          	mov    %rax,0x8(%rbx)
  40255f:	48 b8 61 62 6c 65 20 	movabs $0x206f7420656c6261,%rax
  402566:	74 6f 20 
  402569:	48 89 43 10          	mov    %rax,0x10(%rbx)
  40256d:	48 b8 72 65 73 6f 6c 	movabs $0x2065766c6f736572,%rax
  402574:	76 65 20 
  402577:	48 89 43 18          	mov    %rax,0x18(%rbx)
  40257b:	48 b8 73 65 72 76 65 	movabs $0x6120726576726573,%rax
  402582:	72 20 61 
  402585:	48 89 43 20          	mov    %rax,0x20(%rbx)
  402589:	c7 43 28 64 64 72 65 	movl   $0x65726464,0x28(%rbx)
  402590:	66 c7 43 2c 73 73    	movw   $0x7373,0x2c(%rbx)
  402596:	c6 43 2e 00          	movb   $0x0,0x2e(%rbx)
  40259a:	89 ef                	mov    %ebp,%edi
  40259c:	e8 9f e7 ff ff       	callq  400d40 <close@plt>
  4025a1:	b8 ff ff ff ff       	mov    $0xffffffff,%eax
  4025a6:	e9 12 06 00 00       	jmpq   402bbd <submitr+0x737>
  4025ab:	48 c7 44 24 20 00 00 	movq   $0x0,0x20(%rsp)
  4025b2:	00 00 
  4025b4:	48 c7 44 24 28 00 00 	movq   $0x0,0x28(%rsp)
  4025bb:	00 00 
  4025bd:	66 c7 44 24 20 02 00 	movw   $0x2,0x20(%rsp)
  4025c4:	48 63 50 14          	movslq 0x14(%rax),%rdx
  4025c8:	48 8b 40 18          	mov    0x18(%rax),%rax
  4025cc:	48 8b 30             	mov    (%rax),%rsi
  4025cf:	48 8d 7c 24 24       	lea    0x24(%rsp),%rdi
  4025d4:	b9 0c 00 00 00       	mov    $0xc,%ecx
  4025d9:	e8 b2 e7 ff ff       	callq  400d90 <__memmove_chk@plt>
  4025de:	0f b7 44 24 04       	movzwl 0x4(%rsp),%eax
  4025e3:	66 c1 c8 08          	ror    $0x8,%ax
  4025e7:	66 89 44 24 22       	mov    %ax,0x22(%rsp)
  4025ec:	ba 10 00 00 00       	mov    $0x10,%edx
  4025f1:	48 8d 74 24 20       	lea    0x20(%rsp),%rsi
  4025f6:	89 ef                	mov    %ebp,%edi
  4025f8:	e8 83 e8 ff ff       	callq  400e80 <connect@plt>
  4025fd:	85 c0                	test   %eax,%eax
  4025ff:	79 59                	jns    40265a <submitr+0x1d4>
  402601:	48 b8 45 72 72 6f 72 	movabs $0x55203a726f727245,%rax
  402608:	3a 20 55 
  40260b:	48 89 03             	mov    %rax,(%rbx)
  40260e:	48 b8 6e 61 62 6c 65 	movabs $0x6f7420656c62616e,%rax
  402615:	20 74 6f 
  402618:	48 89 43 08          	mov    %rax,0x8(%rbx)
  40261c:	48 b8 20 63 6f 6e 6e 	movabs $0x7463656e6e6f6320,%rax
  402623:	65 63 74 
  402626:	48 89 43 10          	mov    %rax,0x10(%rbx)
  40262a:	48 b8 20 74 6f 20 74 	movabs $0x20656874206f7420,%rax
  402631:	68 65 20 
  402634:	48 89 43 18          	mov    %rax,0x18(%rbx)
  402638:	c7 43 20 73 65 72 76 	movl   $0x76726573,0x20(%rbx)
  40263f:	66 c7 43 24 65 72    	movw   $0x7265,0x24(%rbx)
  402645:	c6 43 26 00          	movb   $0x0,0x26(%rbx)
  402649:	89 ef                	mov    %ebp,%edi
  40264b:	e8 f0 e6 ff ff       	callq  400d40 <close@plt>
  402650:	b8 ff ff ff ff       	mov    $0xffffffff,%eax
  402655:	e9 63 05 00 00       	jmpq   402bbd <submitr+0x737>
  40265a:	48 c7 c6 ff ff ff ff 	mov    $0xffffffffffffffff,%rsi
  402661:	b8 00 00 00 00       	mov    $0x0,%eax
  402666:	48 89 f1             	mov    %rsi,%rcx
  402669:	4c 89 ef             	mov    %r13,%rdi
  40266c:	f2 ae                	repnz scas %es:(%rdi),%al
  40266e:	48 f7 d1             	not    %rcx
  402671:	48 89 ca             	mov    %rcx,%rdx
  402674:	48 89 f1             	mov    %rsi,%rcx
  402677:	4c 89 ff             	mov    %r15,%rdi
  40267a:	f2 ae                	repnz scas %es:(%rdi),%al
  40267c:	48 f7 d1             	not    %rcx
  40267f:	49 89 c8             	mov    %rcx,%r8
  402682:	48 89 f1             	mov    %rsi,%rcx
  402685:	4c 89 f7             	mov    %r14,%rdi
  402688:	f2 ae                	repnz scas %es:(%rdi),%al
  40268a:	48 f7 d1             	not    %rcx
  40268d:	4d 8d 44 08 fe       	lea    -0x2(%r8,%rcx,1),%r8
  402692:	48 89 f1             	mov    %rsi,%rcx
  402695:	48 8b 7c 24 08       	mov    0x8(%rsp),%rdi
  40269a:	f2 ae                	repnz scas %es:(%rdi),%al
  40269c:	48 89 c8             	mov    %rcx,%rax
  40269f:	48 f7 d0             	not    %rax
  4026a2:	49 8d 4c 00 ff       	lea    -0x1(%r8,%rax,1),%rcx
  4026a7:	48 8d 44 52 fd       	lea    -0x3(%rdx,%rdx,2),%rax
  4026ac:	48 8d 84 01 80 00 00 	lea    0x80(%rcx,%rax,1),%rax
  4026b3:	00 
  4026b4:	48 3d 00 20 00 00    	cmp    $0x2000,%rax
  4026ba:	76 72                	jbe    40272e <submitr+0x2a8>
  4026bc:	48 b8 45 72 72 6f 72 	movabs $0x52203a726f727245,%rax
  4026c3:	3a 20 52 
  4026c6:	48 89 03             	mov    %rax,(%rbx)
  4026c9:	48 b8 65 73 75 6c 74 	movabs $0x747320746c757365,%rax
  4026d0:	20 73 74 
  4026d3:	48 89 43 08          	mov    %rax,0x8(%rbx)
  4026d7:	48 b8 72 69 6e 67 20 	movabs $0x6f6f7420676e6972,%rax
  4026de:	74 6f 6f 
  4026e1:	48 89 43 10          	mov    %rax,0x10(%rbx)
  4026e5:	48 b8 20 6c 61 72 67 	movabs $0x202e656772616c20,%rax
  4026ec:	65 2e 20 
  4026ef:	48 89 43 18          	mov    %rax,0x18(%rbx)
  4026f3:	48 b8 49 6e 63 72 65 	movabs $0x6573616572636e49,%rax
  4026fa:	61 73 65 
  4026fd:	48 89 43 20          	mov    %rax,0x20(%rbx)
  402701:	48 b8 20 53 55 42 4d 	movabs $0x5254494d42555320,%rax
  402708:	49 54 52 
  40270b:	48 89 43 28          	mov    %rax,0x28(%rbx)
  40270f:	48 b8 5f 4d 41 58 42 	movabs $0x46554258414d5f,%rax
  402716:	55 46 00 
  402719:	48 89 43 30          	mov    %rax,0x30(%rbx)
  40271d:	89 ef                	mov    %ebp,%edi
  40271f:	e8 1c e6 ff ff       	callq  400d40 <close@plt>
  402724:	b8 ff ff ff ff       	mov    $0xffffffff,%eax
  402729:	e9 8f 04 00 00       	jmpq   402bbd <submitr+0x737>
  40272e:	48 8d b4 24 30 20 00 	lea    0x2030(%rsp),%rsi
  402735:	00 
  402736:	b9 00 04 00 00       	mov    $0x400,%ecx
  40273b:	b8 00 00 00 00       	mov    $0x0,%eax
  402740:	48 89 f7             	mov    %rsi,%rdi
  402743:	f3 48 ab             	rep stos %rax,%es:(%rdi)
  402746:	4c 89 ef             	mov    %r13,%rdi
  402749:	e8 2b fc ff ff       	callq  402379 <urlencode>
  40274e:	85 c0                	test   %eax,%eax
  402750:	0f 89 8a 00 00 00    	jns    4027e0 <submitr+0x35a>
  402756:	48 b8 45 72 72 6f 72 	movabs $0x52203a726f727245,%rax
  40275d:	3a 20 52 
  402760:	48 89 03             	mov    %rax,(%rbx)
  402763:	48 b8 65 73 75 6c 74 	movabs $0x747320746c757365,%rax
  40276a:	20 73 74 
  40276d:	48 89 43 08          	mov    %rax,0x8(%rbx)
  402771:	48 b8 72 69 6e 67 20 	movabs $0x6e6f6320676e6972,%rax
  402778:	63 6f 6e 
  40277b:	48 89 43 10          	mov    %rax,0x10(%rbx)
  40277f:	48 b8 74 61 69 6e 73 	movabs $0x6e6120736e696174,%rax
  402786:	20 61 6e 
  402789:	48 89 43 18          	mov    %rax,0x18(%rbx)
  40278d:	48 b8 20 69 6c 6c 65 	movabs $0x6c6167656c6c6920,%rax
  402794:	67 61 6c 
  402797:	48 89 43 20          	mov    %rax,0x20(%rbx)
  40279b:	48 b8 20 6f 72 20 75 	movabs $0x72706e7520726f20,%rax
  4027a2:	6e 70 72 
  4027a5:	48 89 43 28          	mov    %rax,0x28(%rbx)
  4027a9:	48 b8 69 6e 74 61 62 	movabs $0x20656c6261746e69,%rax
  4027b0:	6c 65 20 
  4027b3:	48 89 43 30          	mov    %rax,0x30(%rbx)
  4027b7:	48 b8 63 68 61 72 61 	movabs $0x6574636172616863,%rax
  4027be:	63 74 65 
  4027c1:	48 89 43 38          	mov    %rax,0x38(%rbx)
  4027c5:	66 c7 43 40 72 2e    	movw   $0x2e72,0x40(%rbx)
  4027cb:	c6 43 42 00          	movb   $0x0,0x42(%rbx)
  4027cf:	89 ef                	mov    %ebp,%edi
  4027d1:	e8 6a e5 ff ff       	callq  400d40 <close@plt>
  4027d6:	b8 ff ff ff ff       	mov    $0xffffffff,%eax
  4027db:	e9 dd 03 00 00       	jmpq   402bbd <submitr+0x737>
  4027e0:	4c 8d 6c 24 30       	lea    0x30(%rsp),%r13
  4027e5:	41 54                	push   %r12
  4027e7:	48 8d 84 24 38 20 00 	lea    0x2038(%rsp),%rax
  4027ee:	00 
  4027ef:	50                   	push   %rax
  4027f0:	4d 89 f9             	mov    %r15,%r9
  4027f3:	4d 89 f0             	mov    %r14,%r8
  4027f6:	b9 a8 36 40 00       	mov    $0x4036a8,%ecx
  4027fb:	ba 00 20 00 00       	mov    $0x2000,%edx
  402800:	be 01 00 00 00       	mov    $0x1,%esi
  402805:	4c 89 ef             	mov    %r13,%rdi
  402808:	b8 00 00 00 00       	mov    $0x0,%eax
  40280d:	e8 8e e6 ff ff       	callq  400ea0 <__sprintf_chk@plt>
  402812:	b8 00 00 00 00       	mov    $0x0,%eax
  402817:	48 c7 c1 ff ff ff ff 	mov    $0xffffffffffffffff,%rcx
  40281e:	4c 89 ef             	mov    %r13,%rdi
  402821:	f2 ae                	repnz scas %es:(%rdi),%al
  402823:	48 f7 d1             	not    %rcx
  402826:	48 8d 51 ff          	lea    -0x1(%rcx),%rdx
  40282a:	4c 89 ee             	mov    %r13,%rsi
  40282d:	89 ef                	mov    %ebp,%edi
  40282f:	e8 d9 f9 ff ff       	callq  40220d <rio_writen>
  402834:	48 83 c4 10          	add    $0x10,%rsp
  402838:	48 85 c0             	test   %rax,%rax
  40283b:	79 6e                	jns    4028ab <submitr+0x425>
  40283d:	48 b8 45 72 72 6f 72 	movabs $0x43203a726f727245,%rax
  402844:	3a 20 43 
  402847:	48 89 03             	mov    %rax,(%rbx)
  40284a:	48 b8 6c 69 65 6e 74 	movabs $0x6e7520746e65696c,%rax
  402851:	20 75 6e 
  402854:	48 89 43 08          	mov    %rax,0x8(%rbx)
  402858:	48 b8 61 62 6c 65 20 	movabs $0x206f7420656c6261,%rax
  40285f:	74 6f 20 
  402862:	48 89 43 10          	mov    %rax,0x10(%rbx)
  402866:	48 b8 77 72 69 74 65 	movabs $0x6f74206574697277,%rax
  40286d:	20 74 6f 
  402870:	48 89 43 18          	mov    %rax,0x18(%rbx)
  402874:	48 b8 20 74 68 65 20 	movabs $0x7365722065687420,%rax
  40287b:	72 65 73 
  40287e:	48 89 43 20          	mov    %rax,0x20(%rbx)
  402882:	48 b8 75 6c 74 20 73 	movabs $0x7672657320746c75,%rax
  402889:	65 72 76 
  40288c:	48 89 43 28          	mov    %rax,0x28(%rbx)
  402890:	66 c7 43 30 65 72    	movw   $0x7265,0x30(%rbx)
  402896:	c6 43 32 00          	movb   $0x0,0x32(%rbx)
  40289a:	89 ef                	mov    %ebp,%edi
  40289c:	e8 9f e4 ff ff       	callq  400d40 <close@plt>
  4028a1:	b8 ff ff ff ff       	mov    $0xffffffff,%eax
  4028a6:	e9 12 03 00 00       	jmpq   402bbd <submitr+0x737>
  4028ab:	89 ee                	mov    %ebp,%esi
  4028ad:	48 8d bc 24 30 80 00 	lea    0x8030(%rsp),%rdi
  4028b4:	00 
  4028b5:	e8 13 f9 ff ff       	callq  4021cd <rio_readinitb>
  4028ba:	ba 00 20 00 00       	mov    $0x2000,%edx
  4028bf:	48 8d 74 24 30       	lea    0x30(%rsp),%rsi
  4028c4:	48 8d bc 24 30 80 00 	lea    0x8030(%rsp),%rdi
  4028cb:	00 
  4028cc:	e8 23 fa ff ff       	callq  4022f4 <rio_readlineb>
  4028d1:	48 85 c0             	test   %rax,%rax
  4028d4:	7f 7d                	jg     402953 <submitr+0x4cd>
  4028d6:	48 b8 45 72 72 6f 72 	movabs $0x43203a726f727245,%rax
  4028dd:	3a 20 43 
  4028e0:	48 89 03             	mov    %rax,(%rbx)
  4028e3:	48 b8 6c 69 65 6e 74 	movabs $0x6e7520746e65696c,%rax
  4028ea:	20 75 6e 
  4028ed:	48 89 43 08          	mov    %rax,0x8(%rbx)
  4028f1:	48 b8 61 62 6c 65 20 	movabs $0x206f7420656c6261,%rax
  4028f8:	74 6f 20 
  4028fb:	48 89 43 10          	mov    %rax,0x10(%rbx)
  4028ff:	48 b8 72 65 61 64 20 	movabs $0x7269662064616572,%rax
  402906:	66 69 72 
  402909:	48 89 43 18          	mov    %rax,0x18(%rbx)
  40290d:	48 b8 73 74 20 68 65 	movabs $0x6564616568207473,%rax
  402914:	61 64 65 
  402917:	48 89 43 20          	mov    %rax,0x20(%rbx)
  40291b:	48 b8 72 20 66 72 6f 	movabs $0x72206d6f72662072,%rax
  402922:	6d 20 72 
  402925:	48 89 43 28          	mov    %rax,0x28(%rbx)
  402929:	48 b8 65 73 75 6c 74 	movabs $0x657320746c757365,%rax
  402930:	20 73 65 
  402933:	48 89 43 30          	mov    %rax,0x30(%rbx)
  402937:	c7 43 38 72 76 65 72 	movl   $0x72657672,0x38(%rbx)
  40293e:	c6 43 3c 00          	movb   $0x0,0x3c(%rbx)
  402942:	89 ef                	mov    %ebp,%edi
  402944:	e8 f7 e3 ff ff       	callq  400d40 <close@plt>
  402949:	b8 ff ff ff ff       	mov    $0xffffffff,%eax
  40294e:	e9 6a 02 00 00       	jmpq   402bbd <submitr+0x737>
  402953:	4c 8d 84 24 30 60 00 	lea    0x6030(%rsp),%r8
  40295a:	00 
  40295b:	48 8d 4c 24 1c       	lea    0x1c(%rsp),%rcx
  402960:	48 8d 94 24 30 40 00 	lea    0x4030(%rsp),%rdx
  402967:	00 
  402968:	be 1f 37 40 00       	mov    $0x40371f,%esi
  40296d:	48 8d 7c 24 30       	lea    0x30(%rsp),%rdi
  402972:	b8 00 00 00 00       	mov    $0x0,%eax
  402977:	e8 84 e4 ff ff       	callq  400e00 <__isoc99_sscanf@plt>
  40297c:	e9 95 00 00 00       	jmpq   402a16 <submitr+0x590>
  402981:	ba 00 20 00 00       	mov    $0x2000,%edx
  402986:	48 8d 74 24 30       	lea    0x30(%rsp),%rsi
  40298b:	48 8d bc 24 30 80 00 	lea    0x8030(%rsp),%rdi
  402992:	00 
  402993:	e8 5c f9 ff ff       	callq  4022f4 <rio_readlineb>
  402998:	48 85 c0             	test   %rax,%rax
  40299b:	7f 79                	jg     402a16 <submitr+0x590>
  40299d:	48 b8 45 72 72 6f 72 	movabs $0x43203a726f727245,%rax
  4029a4:	3a 20 43 
  4029a7:	48 89 03             	mov    %rax,(%rbx)
  4029aa:	48 b8 6c 69 65 6e 74 	movabs $0x6e7520746e65696c,%rax
  4029b1:	20 75 6e 
  4029b4:	48 89 43 08          	mov    %rax,0x8(%rbx)
  4029b8:	48 b8 61 62 6c 65 20 	movabs $0x206f7420656c6261,%rax
  4029bf:	74 6f 20 
  4029c2:	48 89 43 10          	mov    %rax,0x10(%rbx)
  4029c6:	48 b8 72 65 61 64 20 	movabs $0x6165682064616572,%rax
  4029cd:	68 65 61 
  4029d0:	48 89 43 18          	mov    %rax,0x18(%rbx)
  4029d4:	48 b8 64 65 72 73 20 	movabs $0x6f72662073726564,%rax
  4029db:	66 72 6f 
  4029de:	48 89 43 20          	mov    %rax,0x20(%rbx)
  4029e2:	48 b8 6d 20 74 68 65 	movabs $0x657220656874206d,%rax
  4029e9:	20 72 65 
  4029ec:	48 89 43 28          	mov    %rax,0x28(%rbx)
  4029f0:	48 b8 73 75 6c 74 20 	movabs $0x72657320746c7573,%rax
  4029f7:	73 65 72 
  4029fa:	48 89 43 30          	mov    %rax,0x30(%rbx)
  4029fe:	c7 43 38 76 65 72 00 	movl   $0x726576,0x38(%rbx)
  402a05:	89 ef                	mov    %ebp,%edi
  402a07:	e8 34 e3 ff ff       	callq  400d40 <close@plt>
  402a0c:	b8 ff ff ff ff       	mov    $0xffffffff,%eax
  402a11:	e9 a7 01 00 00       	jmpq   402bbd <submitr+0x737>
  402a16:	0f b6 54 24 30       	movzbl 0x30(%rsp),%edx
  402a1b:	b8 0d 00 00 00       	mov    $0xd,%eax
  402a20:	29 d0                	sub    %edx,%eax
  402a22:	75 15                	jne    402a39 <submitr+0x5b3>
  402a24:	0f b6 54 24 31       	movzbl 0x31(%rsp),%edx
  402a29:	b8 0a 00 00 00       	mov    $0xa,%eax
  402a2e:	29 d0                	sub    %edx,%eax
  402a30:	75 07                	jne    402a39 <submitr+0x5b3>
  402a32:	0f b6 44 24 32       	movzbl 0x32(%rsp),%eax
  402a37:	f7 d8                	neg    %eax
  402a39:	85 c0                	test   %eax,%eax
  402a3b:	0f 85 40 ff ff ff    	jne    402981 <submitr+0x4fb>
  402a41:	ba 00 20 00 00       	mov    $0x2000,%edx
  402a46:	48 8d 74 24 30       	lea    0x30(%rsp),%rsi
  402a4b:	48 8d bc 24 30 80 00 	lea    0x8030(%rsp),%rdi
  402a52:	00 
  402a53:	e8 9c f8 ff ff       	callq  4022f4 <rio_readlineb>
  402a58:	48 85 c0             	test   %rax,%rax
  402a5b:	0f 8f 83 00 00 00    	jg     402ae4 <submitr+0x65e>
  402a61:	48 b8 45 72 72 6f 72 	movabs $0x43203a726f727245,%rax
  402a68:	3a 20 43 
  402a6b:	48 89 03             	mov    %rax,(%rbx)
  402a6e:	48 b8 6c 69 65 6e 74 	movabs $0x6e7520746e65696c,%rax
  402a75:	20 75 6e 
  402a78:	48 89 43 08          	mov    %rax,0x8(%rbx)
  402a7c:	48 b8 61 62 6c 65 20 	movabs $0x206f7420656c6261,%rax
  402a83:	74 6f 20 
  402a86:	48 89 43 10          	mov    %rax,0x10(%rbx)
  402a8a:	48 b8 72 65 61 64 20 	movabs $0x6174732064616572,%rax
  402a91:	73 74 61 
  402a94:	48 89 43 18          	mov    %rax,0x18(%rbx)
  402a98:	48 b8 74 75 73 20 6d 	movabs $0x7373656d20737574,%rax
  402a9f:	65 73 73 
  402aa2:	48 89 43 20          	mov    %rax,0x20(%rbx)
  402aa6:	48 b8 61 67 65 20 66 	movabs $0x6d6f726620656761,%rax
  402aad:	72 6f 6d 
  402ab0:	48 89 43 28          	mov    %rax,0x28(%rbx)
  402ab4:	48 b8 20 72 65 73 75 	movabs $0x20746c7573657220,%rax
  402abb:	6c 74 20 
  402abe:	48 89 43 30          	mov    %rax,0x30(%rbx)
  402ac2:	c7 43 38 73 65 72 76 	movl   $0x76726573,0x38(%rbx)
  402ac9:	66 c7 43 3c 65 72    	movw   $0x7265,0x3c(%rbx)
  402acf:	c6 43 3e 00          	movb   $0x0,0x3e(%rbx)
  402ad3:	89 ef                	mov    %ebp,%edi
  402ad5:	e8 66 e2 ff ff       	callq  400d40 <close@plt>
  402ada:	b8 ff ff ff ff       	mov    $0xffffffff,%eax
  402adf:	e9 d9 00 00 00       	jmpq   402bbd <submitr+0x737>
  402ae4:	44 8b 44 24 1c       	mov    0x1c(%rsp),%r8d
  402ae9:	41 81 f8 c8 00 00 00 	cmp    $0xc8,%r8d
  402af0:	74 37                	je     402b29 <submitr+0x6a3>
  402af2:	4c 8d 8c 24 30 60 00 	lea    0x6030(%rsp),%r9
  402af9:	00 
  402afa:	b9 e8 36 40 00       	mov    $0x4036e8,%ecx
  402aff:	48 c7 c2 ff ff ff ff 	mov    $0xffffffffffffffff,%rdx
  402b06:	be 01 00 00 00       	mov    $0x1,%esi
  402b0b:	48 89 df             	mov    %rbx,%rdi
  402b0e:	b8 00 00 00 00       	mov    $0x0,%eax
  402b13:	e8 88 e3 ff ff       	callq  400ea0 <__sprintf_chk@plt>
  402b18:	89 ef                	mov    %ebp,%edi
  402b1a:	e8 21 e2 ff ff       	callq  400d40 <close@plt>
  402b1f:	b8 ff ff ff ff       	mov    $0xffffffff,%eax
  402b24:	e9 94 00 00 00       	jmpq   402bbd <submitr+0x737>
  402b29:	48 8d 74 24 30       	lea    0x30(%rsp),%rsi
  402b2e:	48 89 df             	mov    %rbx,%rdi
  402b31:	e8 9a e1 ff ff       	callq  400cd0 <strcpy@plt>
  402b36:	89 ef                	mov    %ebp,%edi
  402b38:	e8 03 e2 ff ff       	callq  400d40 <close@plt>
  402b3d:	0f b6 03             	movzbl (%rbx),%eax
  402b40:	ba 4f 00 00 00       	mov    $0x4f,%edx
  402b45:	29 c2                	sub    %eax,%edx
  402b47:	75 22                	jne    402b6b <submitr+0x6e5>
  402b49:	0f b6 4b 01          	movzbl 0x1(%rbx),%ecx
  402b4d:	b8 4b 00 00 00       	mov    $0x4b,%eax
  402b52:	29 c8                	sub    %ecx,%eax
  402b54:	75 17                	jne    402b6d <submitr+0x6e7>
  402b56:	0f b6 4b 02          	movzbl 0x2(%rbx),%ecx
  402b5a:	b8 0a 00 00 00       	mov    $0xa,%eax
  402b5f:	29 c8                	sub    %ecx,%eax
  402b61:	75 0a                	jne    402b6d <submitr+0x6e7>
  402b63:	0f b6 43 03          	movzbl 0x3(%rbx),%eax
  402b67:	f7 d8                	neg    %eax
  402b69:	eb 02                	jmp    402b6d <submitr+0x6e7>
  402b6b:	89 d0                	mov    %edx,%eax
  402b6d:	85 c0                	test   %eax,%eax
  402b6f:	74 40                	je     402bb1 <submitr+0x72b>
  402b71:	bf 30 37 40 00       	mov    $0x403730,%edi
  402b76:	b9 05 00 00 00       	mov    $0x5,%ecx
  402b7b:	48 89 de             	mov    %rbx,%rsi
  402b7e:	f3 a6                	repz cmpsb %es:(%rdi),%ds:(%rsi)
  402b80:	0f 97 c0             	seta   %al
  402b83:	0f 92 c1             	setb   %cl
  402b86:	29 c8                	sub    %ecx,%eax
  402b88:	0f be c0             	movsbl %al,%eax
  402b8b:	85 c0                	test   %eax,%eax
  402b8d:	74 2e                	je     402bbd <submitr+0x737>
  402b8f:	85 d2                	test   %edx,%edx
  402b91:	75 13                	jne    402ba6 <submitr+0x720>
  402b93:	0f b6 43 01          	movzbl 0x1(%rbx),%eax
  402b97:	ba 4b 00 00 00       	mov    $0x4b,%edx
  402b9c:	29 c2                	sub    %eax,%edx
  402b9e:	75 06                	jne    402ba6 <submitr+0x720>
  402ba0:	0f b6 53 02          	movzbl 0x2(%rbx),%edx
  402ba4:	f7 da                	neg    %edx
  402ba6:	85 d2                	test   %edx,%edx
  402ba8:	75 0e                	jne    402bb8 <submitr+0x732>
  402baa:	b8 00 00 00 00       	mov    $0x0,%eax
  402baf:	eb 0c                	jmp    402bbd <submitr+0x737>
  402bb1:	b8 00 00 00 00       	mov    $0x0,%eax
  402bb6:	eb 05                	jmp    402bbd <submitr+0x737>
  402bb8:	b8 ff ff ff ff       	mov    $0xffffffff,%eax
  402bbd:	48 8b 9c 24 48 a0 00 	mov    0xa048(%rsp),%rbx
  402bc4:	00 
  402bc5:	64 48 33 1c 25 28 00 	xor    %fs:0x28,%rbx
  402bcc:	00 00 
  402bce:	74 05                	je     402bd5 <submitr+0x74f>
  402bd0:	e8 2b e1 ff ff       	callq  400d00 <__stack_chk_fail@plt>
  402bd5:	48 81 c4 58 a0 00 00 	add    $0xa058,%rsp
  402bdc:	5b                   	pop    %rbx
  402bdd:	5d                   	pop    %rbp
  402bde:	41 5c                	pop    %r12
  402be0:	41 5d                	pop    %r13
  402be2:	41 5e                	pop    %r14
  402be4:	41 5f                	pop    %r15
  402be6:	c3                   	retq   

0000000000402be7 <init_timeout>:
  402be7:	85 ff                	test   %edi,%edi
  402be9:	74 23                	je     402c0e <init_timeout+0x27>
  402beb:	53                   	push   %rbx
  402bec:	89 fb                	mov    %edi,%ebx
  402bee:	85 ff                	test   %edi,%edi
  402bf0:	79 05                	jns    402bf7 <init_timeout+0x10>
  402bf2:	bb 00 00 00 00       	mov    $0x0,%ebx
  402bf7:	be df 21 40 00       	mov    $0x4021df,%esi
  402bfc:	bf 0e 00 00 00       	mov    $0xe,%edi
  402c01:	e8 6a e1 ff ff       	callq  400d70 <signal@plt>
  402c06:	89 df                	mov    %ebx,%edi
  402c08:	e8 23 e1 ff ff       	callq  400d30 <alarm@plt>
  402c0d:	5b                   	pop    %rbx
  402c0e:	f3 c3                	repz retq 

0000000000402c10 <init_driver>:
  402c10:	55                   	push   %rbp
  402c11:	53                   	push   %rbx
  402c12:	48 83 ec 28          	sub    $0x28,%rsp
  402c16:	48 89 fd             	mov    %rdi,%rbp
  402c19:	64 48 8b 04 25 28 00 	mov    %fs:0x28,%rax
  402c20:	00 00 
  402c22:	48 89 44 24 18       	mov    %rax,0x18(%rsp)
  402c27:	31 c0                	xor    %eax,%eax
  402c29:	be 01 00 00 00       	mov    $0x1,%esi
  402c2e:	bf 0d 00 00 00       	mov    $0xd,%edi
  402c33:	e8 38 e1 ff ff       	callq  400d70 <signal@plt>
  402c38:	be 01 00 00 00       	mov    $0x1,%esi
  402c3d:	bf 1d 00 00 00       	mov    $0x1d,%edi
  402c42:	e8 29 e1 ff ff       	callq  400d70 <signal@plt>
  402c47:	be 01 00 00 00       	mov    $0x1,%esi
  402c4c:	bf 1d 00 00 00       	mov    $0x1d,%edi
  402c51:	e8 1a e1 ff ff       	callq  400d70 <signal@plt>
  402c56:	ba 00 00 00 00       	mov    $0x0,%edx
  402c5b:	be 01 00 00 00       	mov    $0x1,%esi
  402c60:	bf 02 00 00 00       	mov    $0x2,%edi
  402c65:	e8 46 e2 ff ff       	callq  400eb0 <socket@plt>
  402c6a:	85 c0                	test   %eax,%eax
  402c6c:	79 4f                	jns    402cbd <init_driver+0xad>
  402c6e:	48 b8 45 72 72 6f 72 	movabs $0x43203a726f727245,%rax
  402c75:	3a 20 43 
  402c78:	48 89 45 00          	mov    %rax,0x0(%rbp)
  402c7c:	48 b8 6c 69 65 6e 74 	movabs $0x6e7520746e65696c,%rax
  402c83:	20 75 6e 
  402c86:	48 89 45 08          	mov    %rax,0x8(%rbp)
  402c8a:	48 b8 61 62 6c 65 20 	movabs $0x206f7420656c6261,%rax
  402c91:	74 6f 20 
  402c94:	48 89 45 10          	mov    %rax,0x10(%rbp)
  402c98:	48 b8 63 72 65 61 74 	movabs $0x7320657461657263,%rax
  402c9f:	65 20 73 
  402ca2:	48 89 45 18          	mov    %rax,0x18(%rbp)
  402ca6:	c7 45 20 6f 63 6b 65 	movl   $0x656b636f,0x20(%rbp)
  402cad:	66 c7 45 24 74 00    	movw   $0x74,0x24(%rbp)
  402cb3:	b8 ff ff ff ff       	mov    $0xffffffff,%eax
  402cb8:	e9 2a 01 00 00       	jmpq   402de7 <init_driver+0x1d7>
  402cbd:	89 c3                	mov    %eax,%ebx
  402cbf:	bf 6f 32 40 00       	mov    $0x40326f,%edi
  402cc4:	e8 b7 e0 ff ff       	callq  400d80 <gethostbyname@plt>
  402cc9:	48 85 c0             	test   %rax,%rax
  402ccc:	75 68                	jne    402d36 <init_driver+0x126>
  402cce:	48 b8 45 72 72 6f 72 	movabs $0x44203a726f727245,%rax
  402cd5:	3a 20 44 
  402cd8:	48 89 45 00          	mov    %rax,0x0(%rbp)
  402cdc:	48 b8 4e 53 20 69 73 	movabs $0x6e7520736920534e,%rax
  402ce3:	20 75 6e 
  402ce6:	48 89 45 08          	mov    %rax,0x8(%rbp)
  402cea:	48 b8 61 62 6c 65 20 	movabs $0x206f7420656c6261,%rax
  402cf1:	74 6f 20 
  402cf4:	48 89 45 10          	mov    %rax,0x10(%rbp)
  402cf8:	48 b8 72 65 73 6f 6c 	movabs $0x2065766c6f736572,%rax
  402cff:	76 65 20 
  402d02:	48 89 45 18          	mov    %rax,0x18(%rbp)
  402d06:	48 b8 73 65 72 76 65 	movabs $0x6120726576726573,%rax
  402d0d:	72 20 61 
  402d10:	48 89 45 20          	mov    %rax,0x20(%rbp)
  402d14:	c7 45 28 64 64 72 65 	movl   $0x65726464,0x28(%rbp)
  402d1b:	66 c7 45 2c 73 73    	movw   $0x7373,0x2c(%rbp)
  402d21:	c6 45 2e 00          	movb   $0x0,0x2e(%rbp)
  402d25:	89 df                	mov    %ebx,%edi
  402d27:	e8 14 e0 ff ff       	callq  400d40 <close@plt>
  402d2c:	b8 ff ff ff ff       	mov    $0xffffffff,%eax
  402d31:	e9 b1 00 00 00       	jmpq   402de7 <init_driver+0x1d7>
  402d36:	48 c7 04 24 00 00 00 	movq   $0x0,(%rsp)
  402d3d:	00 
  402d3e:	48 c7 44 24 08 00 00 	movq   $0x0,0x8(%rsp)
  402d45:	00 00 
  402d47:	66 c7 04 24 02 00    	movw   $0x2,(%rsp)
  402d4d:	48 63 50 14          	movslq 0x14(%rax),%rdx
  402d51:	48 8b 40 18          	mov    0x18(%rax),%rax
  402d55:	48 8b 30             	mov    (%rax),%rsi
  402d58:	48 8d 7c 24 04       	lea    0x4(%rsp),%rdi
  402d5d:	b9 0c 00 00 00       	mov    $0xc,%ecx
  402d62:	e8 29 e0 ff ff       	callq  400d90 <__memmove_chk@plt>
  402d67:	66 c7 44 24 02 4e f3 	movw   $0xf34e,0x2(%rsp)
  402d6e:	ba 10 00 00 00       	mov    $0x10,%edx
  402d73:	48 89 e6             	mov    %rsp,%rsi
  402d76:	89 df                	mov    %ebx,%edi
  402d78:	e8 03 e1 ff ff       	callq  400e80 <connect@plt>
  402d7d:	85 c0                	test   %eax,%eax
  402d7f:	79 50                	jns    402dd1 <init_driver+0x1c1>
  402d81:	48 b8 45 72 72 6f 72 	movabs $0x55203a726f727245,%rax
  402d88:	3a 20 55 
  402d8b:	48 89 45 00          	mov    %rax,0x0(%rbp)
  402d8f:	48 b8 6e 61 62 6c 65 	movabs $0x6f7420656c62616e,%rax
  402d96:	20 74 6f 
  402d99:	48 89 45 08          	mov    %rax,0x8(%rbp)
  402d9d:	48 b8 20 63 6f 6e 6e 	movabs $0x7463656e6e6f6320,%rax
  402da4:	65 63 74 
  402da7:	48 89 45 10          	mov    %rax,0x10(%rbp)
  402dab:	48 b8 20 74 6f 20 73 	movabs $0x76726573206f7420,%rax
  402db2:	65 72 76 
  402db5:	48 89 45 18          	mov    %rax,0x18(%rbp)
  402db9:	66 c7 45 20 65 72    	movw   $0x7265,0x20(%rbp)
  402dbf:	c6 45 22 00          	movb   $0x0,0x22(%rbp)
  402dc3:	89 df                	mov    %ebx,%edi
  402dc5:	e8 76 df ff ff       	callq  400d40 <close@plt>
  402dca:	b8 ff ff ff ff       	mov    $0xffffffff,%eax
  402dcf:	eb 16                	jmp    402de7 <init_driver+0x1d7>
  402dd1:	89 df                	mov    %ebx,%edi
  402dd3:	e8 68 df ff ff       	callq  400d40 <close@plt>
  402dd8:	66 c7 45 00 4f 4b    	movw   $0x4b4f,0x0(%rbp)
  402dde:	c6 45 02 00          	movb   $0x0,0x2(%rbp)
  402de2:	b8 00 00 00 00       	mov    $0x0,%eax
  402de7:	48 8b 4c 24 18       	mov    0x18(%rsp),%rcx
  402dec:	64 48 33 0c 25 28 00 	xor    %fs:0x28,%rcx
  402df3:	00 00 
  402df5:	74 05                	je     402dfc <init_driver+0x1ec>
  402df7:	e8 04 df ff ff       	callq  400d00 <__stack_chk_fail@plt>
  402dfc:	48 83 c4 28          	add    $0x28,%rsp
  402e00:	5b                   	pop    %rbx
  402e01:	5d                   	pop    %rbp
  402e02:	c3                   	retq   

0000000000402e03 <driver_post>:
  402e03:	53                   	push   %rbx
  402e04:	4c 89 cb             	mov    %r9,%rbx
  402e07:	45 85 c0             	test   %r8d,%r8d
  402e0a:	74 27                	je     402e33 <driver_post+0x30>
  402e0c:	48 89 ca             	mov    %rcx,%rdx
  402e0f:	be 35 37 40 00       	mov    $0x403735,%esi
  402e14:	bf 01 00 00 00       	mov    $0x1,%edi
  402e19:	b8 00 00 00 00       	mov    $0x0,%eax
  402e1e:	e8 fd df ff ff       	callq  400e20 <__printf_chk@plt>
  402e23:	66 c7 03 4f 4b       	movw   $0x4b4f,(%rbx)
  402e28:	c6 43 02 00          	movb   $0x0,0x2(%rbx)
  402e2c:	b8 00 00 00 00       	mov    $0x0,%eax
  402e31:	eb 3f                	jmp    402e72 <driver_post+0x6f>
  402e33:	48 85 ff             	test   %rdi,%rdi
  402e36:	74 2c                	je     402e64 <driver_post+0x61>
  402e38:	80 3f 00             	cmpb   $0x0,(%rdi)
  402e3b:	74 27                	je     402e64 <driver_post+0x61>
  402e3d:	48 83 ec 08          	sub    $0x8,%rsp
  402e41:	41 51                	push   %r9
  402e43:	49 89 c9             	mov    %rcx,%r9
  402e46:	49 89 d0             	mov    %rdx,%r8
  402e49:	48 89 f9             	mov    %rdi,%rcx
  402e4c:	48 89 f2             	mov    %rsi,%rdx
  402e4f:	be f3 4e 00 00       	mov    $0x4ef3,%esi
  402e54:	bf 6f 32 40 00       	mov    $0x40326f,%edi
  402e59:	e8 28 f6 ff ff       	callq  402486 <submitr>
  402e5e:	48 83 c4 10          	add    $0x10,%rsp
  402e62:	eb 0e                	jmp    402e72 <driver_post+0x6f>
  402e64:	66 c7 03 4f 4b       	movw   $0x4b4f,(%rbx)
  402e69:	c6 43 02 00          	movb   $0x0,0x2(%rbx)
  402e6d:	b8 00 00 00 00       	mov    $0x0,%eax
  402e72:	5b                   	pop    %rbx
  402e73:	c3                   	retq   

0000000000402e74 <check>:
  402e74:	89 f8                	mov    %edi,%eax
  402e76:	c1 e8 1c             	shr    $0x1c,%eax
  402e79:	85 c0                	test   %eax,%eax
  402e7b:	74 1d                	je     402e9a <check+0x26>
  402e7d:	b9 00 00 00 00       	mov    $0x0,%ecx
  402e82:	eb 0b                	jmp    402e8f <check+0x1b>
  402e84:	89 f8                	mov    %edi,%eax
  402e86:	d3 e8                	shr    %cl,%eax
  402e88:	3c 0a                	cmp    $0xa,%al
  402e8a:	74 14                	je     402ea0 <check+0x2c>
  402e8c:	83 c1 08             	add    $0x8,%ecx
  402e8f:	83 f9 1f             	cmp    $0x1f,%ecx
  402e92:	7e f0                	jle    402e84 <check+0x10>
  402e94:	b8 01 00 00 00       	mov    $0x1,%eax
  402e99:	c3                   	retq   
  402e9a:	b8 00 00 00 00       	mov    $0x0,%eax
  402e9f:	c3                   	retq   
  402ea0:	b8 00 00 00 00       	mov    $0x0,%eax
  402ea5:	c3                   	retq   

0000000000402ea6 <gencookie>:
  402ea6:	53                   	push   %rbx
  402ea7:	83 c7 01             	add    $0x1,%edi
  402eaa:	e8 01 de ff ff       	callq  400cb0 <srandom@plt>
  402eaf:	e8 2c df ff ff       	callq  400de0 <random@plt>
  402eb4:	89 c3                	mov    %eax,%ebx
  402eb6:	89 c7                	mov    %eax,%edi
  402eb8:	e8 b7 ff ff ff       	callq  402e74 <check>
  402ebd:	85 c0                	test   %eax,%eax
  402ebf:	74 ee                	je     402eaf <gencookie+0x9>
  402ec1:	89 d8                	mov    %ebx,%eax
  402ec3:	5b                   	pop    %rbx
  402ec4:	c3                   	retq   
  402ec5:	66 2e 0f 1f 84 00 00 	nopw   %cs:0x0(%rax,%rax,1)
  402ecc:	00 00 00 
  402ecf:	90                   	nop

0000000000402ed0 <__libc_csu_init>:
  402ed0:	41 57                	push   %r15
  402ed2:	41 89 ff             	mov    %edi,%r15d
  402ed5:	41 56                	push   %r14
  402ed7:	49 89 f6             	mov    %rsi,%r14
  402eda:	41 55                	push   %r13
  402edc:	49 89 d5             	mov    %rdx,%r13
  402edf:	41 54                	push   %r12
  402ee1:	4c 8d 25 28 1f 20 00 	lea    0x201f28(%rip),%r12        # 604e10 <__frame_dummy_init_array_entry>
  402ee8:	55                   	push   %rbp
  402ee9:	48 8d 2d 28 1f 20 00 	lea    0x201f28(%rip),%rbp        # 604e18 <__init_array_end>
  402ef0:	53                   	push   %rbx
  402ef1:	4c 29 e5             	sub    %r12,%rbp
  402ef4:	31 db                	xor    %ebx,%ebx
  402ef6:	48 c1 fd 03          	sar    $0x3,%rbp
  402efa:	48 83 ec 08          	sub    $0x8,%rsp
  402efe:	e8 5d dd ff ff       	callq  400c60 <_init>
  402f03:	48 85 ed             	test   %rbp,%rbp
  402f06:	74 1e                	je     402f26 <__libc_csu_init+0x56>
  402f08:	0f 1f 84 00 00 00 00 	nopl   0x0(%rax,%rax,1)
  402f0f:	00 
  402f10:	4c 89 ea             	mov    %r13,%rdx
  402f13:	4c 89 f6             	mov    %r14,%rsi
  402f16:	44 89 ff             	mov    %r15d,%edi
  402f19:	41 ff 14 dc          	callq  *(%r12,%rbx,8)
  402f1d:	48 83 c3 01          	add    $0x1,%rbx
  402f21:	48 39 eb             	cmp    %rbp,%rbx
  402f24:	75 ea                	jne    402f10 <__libc_csu_init+0x40>
  402f26:	48 83 c4 08          	add    $0x8,%rsp
  402f2a:	5b                   	pop    %rbx
  402f2b:	5d                   	pop    %rbp
  402f2c:	41 5c                	pop    %r12
  402f2e:	41 5d                	pop    %r13
  402f30:	41 5e                	pop    %r14
  402f32:	41 5f                	pop    %r15
  402f34:	c3                   	retq   
  402f35:	66 66 2e 0f 1f 84 00 	data16 nopw %cs:0x0(%rax,%rax,1)
  402f3c:	00 00 00 00 

0000000000402f40 <__libc_csu_fini>:
  402f40:	f3 c3                	repz retq 

Disassembly of section .fini:

0000000000402f44 <_fini>:
  402f44:	48 83 ec 08          	sub    $0x8,%rsp
  402f48:	48 83 c4 08          	add    $0x8,%rsp
  402f4c:	c3                   	retq   
